Product: MDK-ARM Standard 5.10
Component: ARM Compiler 5.04 update 1 (build 49)
Tool: armlink [5040049]

==============================================================================

Section Cross References

    system_stm32f4xx.o(i.SystemCoreClockUpdate) refers to system_stm32f4xx.o(.data) for .data
    system_stm32f4xx.o(i.SystemInit) refers to system_stm32f4xx.o(i.SetSysClock) for SetSysClock
    main.o(i.GPS_ReadParametersFromFlash) refers to functions.o(i.ReadFromFlash) for ReadFromFlash
    main.o(i.GPS_ReadParametersFromFlash) refers to functions.o(i.GetMessageInfo) for GetMessageInfo
    main.o(i.GPS_ReadParametersFromFlash) refers to functions.o(i.GetValueFromString) for GetValueFromString
    main.o(i.GPS_ReadParametersFromFlash) refers to dfix.o(x$fpl$dfix) for __aeabi_d2iz
    main.o(i.GPS_ReadParametersFromFlash) refers to functions.o(i.GPS_LatLonToUTM) for GPS_LatLonToUTM
    main.o(i.GPS_ReadParametersFromFlash) refers to functions.o(i.GPS_UpdatePathYaw) for GPS_UpdatePathYaw
    main.o(i.GPS_ReadParametersFromFlash) refers to functions.o(.bss) for Flash
    main.o(i.GPS_SaveManual) refers to functions.o(i.ToChar) for ToChar
    main.o(i.GPS_SaveManual) refers to functions.o(i.EraseMemory) for EraseMemory
    main.o(i.GPS_SaveManual) refers to functions.o(i.WriteToFlash) for WriteToFlash
    main.o(i.GPS_SaveManual) refers to functions.o(.bss) for Flash
    main.o(i.PID_ReadParametersFromFlash) refers to functions.o(i.ReadFromFlash) for ReadFromFlash
    main.o(i.PID_ReadParametersFromFlash) refers to functions.o(i.GetMessageInfo) for GetMessageInfo
    main.o(i.PID_ReadParametersFromFlash) refers to functions.o(i.GetValueFromString) for GetValueFromString
    main.o(i.PID_ReadParametersFromFlash) refers to functions.o(i.PID_ParametersUpdate) for PID_ParametersUpdate
    main.o(i.PID_ReadParametersFromFlash) refers to functions.o(.bss) for Flash
    main.o(i.PID_ReadParametersFromFlash) refers to functions.o(.bss) for M1
    main.o(i.PID_ReadParametersFromFlash) refers to functions.o(.bss) for M2
    main.o(i.PID_SaveManual) refers to functions.o(i.ToChar) for ToChar
    main.o(i.PID_SaveManual) refers to functions.o(i.EraseMemory) for EraseMemory
    main.o(i.PID_SaveManual) refers to functions.o(i.WriteToFlash) for WriteToFlash
    main.o(i.PID_SaveManual) refers to functions.o(.bss) for Flash
    main.o(i.Parameters_Init) refers to functions.o(i.Error_ResetIndex) for Error_ResetIndex
    main.o(i.Parameters_Init) refers to functions.o(i.Time_ParametersInit) for Time_ParametersInit
    main.o(i.Parameters_Init) refers to functions.o(i.Time_GetSampleTime) for Time_GetSampleTime
    main.o(i.Parameters_Init) refers to functions.o(i.Status_ParametersInit) for Status_ParametersInit
    main.o(i.Parameters_Init) refers to main.o(i.PID_ReadParametersFromFlash) for PID_ReadParametersFromFlash
    main.o(i.Parameters_Init) refers to functions.o(i.PID_ParametersInitial) for PID_ParametersInitial
    main.o(i.Parameters_Init) refers to functions.o(i.Fuzzy_ParametersInit) for Fuzzy_ParametersInit
    main.o(i.Parameters_Init) refers to functions.o(i.IMU_ParametesInit) for IMU_ParametesInit
    main.o(i.Parameters_Init) refers to functions.o(i.IMU_UpdateFuzzyCoefficients) for IMU_UpdateFuzzyCoefficients
    main.o(i.Parameters_Init) refers to functions.o(i.GPS_ParametersInit) for GPS_ParametersInit
    main.o(i.Parameters_Init) refers to functions.o(i.Veh_ParametersInit) for Veh_ParametersInit
    main.o(i.Parameters_Init) refers to srf05.o(i.Srf05_FirstInit) for Srf05_FirstInit
    main.o(i.Parameters_Init) refers to twowheelrobot.o(i.Self_ParametersInit) for Self_ParametersInit
    main.o(i.Parameters_Init) refers to functions.o(.bss) for Veh_Error
    main.o(i.Parameters_Init) refers to functions.o(.bss) for Timer
    main.o(i.Parameters_Init) refers to functions.o(.bss) for VehStt
    main.o(i.Parameters_Init) refers to functions.o(.bss) for M1
    main.o(i.Parameters_Init) refers to functions.o(.bss) for M2
    main.o(i.Parameters_Init) refers to functions.o(.bss) for Veh
    main.o(i.Parameters_Init) refers to main.o(.bss) for .bss
    main.o(i.Parameters_Init) refers to twowheelrobot.o(.bss) for selfPosition
    main.o(i.Peripheral_Config) refers to main.o(i.TimerDelayConfig) for TimerDelayConfig
    main.o(i.Peripheral_Config) refers to usart_dma_config.o(i.USART1_Config) for USART1_Config
    main.o(i.Peripheral_Config) refers to usart_dma_config.o(i.USART2_Config) for USART2_Config
    main.o(i.Peripheral_Config) refers to usart_dma_config.o(i.USART6_Config) for USART6_Config
    main.o(i.Peripheral_Config) refers to encoder.o(i.Encoder_Config) for Encoder_Config
    main.o(i.Peripheral_Config) refers to main.o(i.Srf05_MidFront) for Srf05_MidFront
    main.o(i.Peripheral_Config) refers to main.o(i.Srf05_LeftFront) for Srf05_LeftFront
    main.o(i.Peripheral_Config) refers to main.o(i.Srf05_RightFront) for Srf05_RightFront
    main.o(i.Peripheral_Config) refers to main.o(i.Srf05_BackEnd) for Srf05_BackEnd
    main.o(i.Peripheral_Config) refers to misc.o(i.NVIC_PriorityGroupConfig) for NVIC_PriorityGroupConfig
    main.o(i.SendData) refers to functions.o(i.IsDataTransferCompleted) for IsDataTransferCompleted
    main.o(i.SendData) refers to functions.o(i.ToChar) for ToChar
    main.o(i.SendData) refers to functions.o(i.Status_CheckStatus) for Status_CheckStatus
    main.o(i.SendData) refers to dflt_clz.o(x$fpl$dflt) for __aeabi_i2d
    main.o(i.SendData) refers to dmul.o(x$fpl$dmul) for __aeabi_dmul
    main.o(i.SendData) refers to functions.o(i.LRCCalculate) for LRCCalculate
    main.o(i.SendData) refers to functions.o(i.ToHex) for ToHex
    main.o(i.SendData) refers to usart_dma_config.o(i.U6_SendData) for U6_SendData
    main.o(i.SendData) refers to functions.o(.bss) for Veh
    main.o(i.SendData) refers to usart_dma_config.o(.bss) for U6_TxBuffer
    main.o(i.SendData) refers to functions.o(.bss) for M1
    main.o(i.SendData) refers to functions.o(.bss) for M2
    main.o(i.SendData) refers to functions.o(.bss) for Mag
    main.o(i.SendData) refers to functions.o(.bss) for VehStt
    main.o(i.SendStatusData) refers to functions.o(i.IsDataTransferCompleted) for IsDataTransferCompleted
    main.o(i.SendStatusData) refers to dflt_clz.o(x$fpl$dfltu) for __aeabi_ui2d
    main.o(i.SendStatusData) refers to functions.o(i.ToChar) for ToChar
    main.o(i.SendStatusData) refers to dflt_clz.o(x$fpl$dflt) for __aeabi_i2d
    main.o(i.SendStatusData) refers to functions.o(i.LRCCalculate) for LRCCalculate
    main.o(i.SendStatusData) refers to functions.o(i.ToHex) for ToHex
    main.o(i.SendStatusData) refers to usart_dma_config.o(i.U6_SendData) for U6_SendData
    main.o(i.SendStatusData) refers to functions.o(.bss) for Veh
    main.o(i.SendStatusData) refers to usart_dma_config.o(.bss) for U6_TxBuffer
    main.o(i.SendStatusData) refers to functions.o(.bss) for GPS_NEO
    main.o(i.SendStatusData) refers to functions.o(.bss) for M1
    main.o(i.SendStatusData) refers to functions.o(.bss) for M2
    main.o(i.Srf05_BackEnd) refers to srf05.o(i.Srf05_Initial) for Srf05_Initial
    main.o(i.Srf05_BackEnd) refers to main.o(.bss) for .bss
    main.o(i.Srf05_LeftFront) refers to srf05.o(i.Srf05_Initial) for Srf05_Initial
    main.o(i.Srf05_LeftFront) refers to main.o(.bss) for .bss
    main.o(i.Srf05_MidFront) refers to srf05.o(i.Srf05_Initial) for Srf05_Initial
    main.o(i.Srf05_MidFront) refers to main.o(.bss) for .bss
    main.o(i.Srf05_RightFront) refers to srf05.o(i.Srf05_Initial) for Srf05_Initial
    main.o(i.Srf05_RightFront) refers to main.o(.bss) for .bss
    main.o(i.Srf05_StartSensorBack) refers to stm32f4xx_gpio.o(i.GPIO_ResetBits) for GPIO_ResetBits
    main.o(i.Srf05_StartSensorBack) refers to srf05.o(i.Core_Delay_Us) for Core_Delay_Us
    main.o(i.Srf05_StartSensorBack) refers to stm32f4xx_gpio.o(i.GPIO_SetBits) for GPIO_SetBits
    main.o(i.Srf05_StartSensorLeft) refers to stm32f4xx_gpio.o(i.GPIO_ResetBits) for GPIO_ResetBits
    main.o(i.Srf05_StartSensorLeft) refers to srf05.o(i.Core_Delay_Us) for Core_Delay_Us
    main.o(i.Srf05_StartSensorLeft) refers to stm32f4xx_gpio.o(i.GPIO_SetBits) for GPIO_SetBits
    main.o(i.Srf05_StartSensorMid) refers to stm32f4xx_gpio.o(i.GPIO_ResetBits) for GPIO_ResetBits
    main.o(i.Srf05_StartSensorMid) refers to srf05.o(i.Core_Delay_Us) for Core_Delay_Us
    main.o(i.Srf05_StartSensorMid) refers to stm32f4xx_gpio.o(i.GPIO_SetBits) for GPIO_SetBits
    main.o(i.Srf05_StartSensorRight) refers to stm32f4xx_gpio.o(i.GPIO_ResetBits) for GPIO_ResetBits
    main.o(i.Srf05_StartSensorRight) refers to srf05.o(i.Core_Delay_Us) for Core_Delay_Us
    main.o(i.Srf05_StartSensorRight) refers to stm32f4xx_gpio.o(i.GPIO_SetBits) for GPIO_SetBits
    main.o(i.StartTimer) refers to stm32f4xx_tim.o(i.TIM_TimeBaseInit) for TIM_TimeBaseInit
    main.o(i.StartTimer) refers to functions.o(i.Status_UpdateStatus) for Status_UpdateStatus
    main.o(i.StartTimer) refers to stm32f4xx_tim.o(i.TIM_ITConfig) for TIM_ITConfig
    main.o(i.StartTimer) refers to stm32f4xx_tim.o(i.TIM_Cmd) for TIM_Cmd
    main.o(i.StartTimer) refers to main.o(.bss) for .bss
    main.o(i.StartTimer) refers to functions.o(.bss) for VehStt
    main.o(i.StopTimer) refers to stm32f4xx_tim.o(i.TIM_Cmd) for TIM_Cmd
    main.o(i.StopTimer) refers to stm32f4xx_tim.o(i.TIM_ITConfig) for TIM_ITConfig
    main.o(i.TIM5_IRQHandler) refers to stm32f4xx_tim.o(i.TIM_ClearITPendingBit) for TIM_ClearITPendingBit
    main.o(i.TIM5_IRQHandler) refers to functions.o(i.Status_CheckStatus) for Status_CheckStatus
    main.o(i.TIM5_IRQHandler) refers to main.o(i.StopTimer) for StopTimer
    main.o(i.TIM5_IRQHandler) refers to functions.o(i.Status_UpdateStatus) for Status_UpdateStatus
    main.o(i.TIM5_IRQHandler) refers to functions.o(.bss) for VehStt
    main.o(i.TimerDelayConfig) refers to stm32f411_rccenable.o(i.RCC_TIMxClockCmd) for RCC_TIMxClockCmd
    main.o(i.TimerDelayConfig) refers to stm32f4xx_tim.o(i.TIM_TimeBaseInit) for TIM_TimeBaseInit
    main.o(i.TimerDelayConfig) refers to stm32f411_rccenable.o(i.GetIRQHandlerFromTIMxCC) for GetIRQHandlerFromTIMxCC
    main.o(i.TimerDelayConfig) refers to misc.o(i.NVIC_Init) for NVIC_Init
    main.o(i.TimerDelayConfig) refers to main.o(.bss) for .bss
    main.o(i.TimerDelayConfig) refers to main.o(.data) for .data
    main.o(i.main) refers to main.o(i.Parameters_Init) for Parameters_Init
    main.o(i.main) refers to main.o(i.Peripheral_Config) for Peripheral_Config
    main.o(i.main) refers to main.o(i.Srf05_StartSensorMid) for Srf05_StartSensorMid
    main.o(i.main) refers to functions.o(i.Status_CheckStatus) for Status_CheckStatus
    main.o(i.main) refers to stm32f4xx_tim.o(i.TIM_GetCounter) for TIM_GetCounter
    main.o(i.main) refers to functions.o(i.PID_UpdateEnc) for PID_UpdateEnc
    main.o(i.main) refers to stm32f4xx_it.o(i.GetVehicleVelocity) for GetVehicleVelocity
    main.o(i.main) refers to functions.o(i.PID_UpdateSetVel) for PID_UpdateSetVel
    main.o(i.main) refers to functions.o(i.GPS_StanleyControl) for GPS_StanleyControl
    main.o(i.main) refers to functions.o(i.IMU_UpdateSetAngle) for IMU_UpdateSetAngle
    main.o(i.main) refers to functions.o(i.IMU_UpdateFuzzyInput) for IMU_UpdateFuzzyInput
    main.o(i.main) refers to functions.o(i.Defuzzification_Max_Min) for Defuzzification_Max_Min
    main.o(i.main) refers to drleqf.o(x$fpl$drleqf) for __aeabi_cdrcmple
    main.o(i.main) refers to fabs.o(i.__hardfp_fabs) for __hardfp_fabs
    main.o(i.main) refers to daddsub_clz.o(x$fpl$drsb) for __aeabi_drsub
    main.o(i.main) refers to dmul.o(x$fpl$dmul) for __aeabi_dmul
    main.o(i.main) refers to daddsub_clz.o(x$fpl$dadd) for __aeabi_dadd
    main.o(i.main) refers to functions.o(i.PID_Compute) for PID_Compute
    main.o(i.main) refers to encoder.o(i.Robot_Run) for Robot_Run
    main.o(i.main) refers to functions.o(i.IMU_UpdatePreAngle) for IMU_UpdatePreAngle
    main.o(i.main) refers to functions.o(i.Veh_UpdateVehicleFromKey) for Veh_UpdateVehicleFromKey
    main.o(i.main) refers to functions.o(i.Status_UpdateStatus) for Status_UpdateStatus
    main.o(i.main) refers to deqf.o(x$fpl$deqf) for __aeabi_cdcmpeq
    main.o(i.main) refers to functions.o(i.FeedBack) for FeedBack
    main.o(i.main) refers to usart_dma_config.o(i.U1_SendData) for U1_SendData
    main.o(i.main) refers to usart_dma_config.o(i.U6_SendData) for U6_SendData
    main.o(i.main) refers to system_stm32f4xx.o(.data) for SystemCoreClock
    main.o(i.main) refers to functions.o(.bss) for GPS_NEO
    main.o(i.main) refers to functions.o(.bss) for VehStt
    main.o(i.main) refers to functions.o(.bss) for M1
    main.o(i.main) refers to functions.o(.bss) for M2
    main.o(i.main) refers to functions.o(.bss) for Veh
    main.o(i.main) refers to usart_dma_config.o(.bss) for U1_TxBuffer
    main.o(i.main) refers to functions.o(i.PID_ResetEncoder) for PID_ResetEncoder
    main.o(i.main) refers to srf05.o(i.Srf05_ClearFlag) for Srf05_ClearFlag
    main.o(i.main) refers to main.o(i.Srf05_StartSensorLeft) for Srf05_StartSensorLeft
    main.o(i.main) refers to main.o(i.Srf05_StartSensorRight) for Srf05_StartSensorRight
    main.o(i.main) refers to main.o(i.Srf05_StartSensorBack) for Srf05_StartSensorBack
    main.o(i.main) refers to main.o(i.SendStatusData) for SendStatusData
    main.o(i.main) refers to main.o(i.SendData) for SendData
    main.o(i.main) refers to main.o(.bss) for .bss
    stm32f4xx_it.o(i.DMA1_Stream5_IRQHandler) refers to stm32f4xx_dma.o(i.DMA_ClearITPendingBit) for DMA_ClearITPendingBit
    stm32f4xx_it.o(i.DMA1_Stream5_IRQHandler) refers to functions.o(i.GPS_GetLLQMessage) for GPS_GetLLQMessage
    stm32f4xx_it.o(i.DMA1_Stream5_IRQHandler) refers to functions.o(i.Error_AppendError) for Error_AppendError
    stm32f4xx_it.o(i.DMA1_Stream5_IRQHandler) refers to stm32f4xx_dma.o(i.DMA_Cmd) for DMA_Cmd
    stm32f4xx_it.o(i.DMA1_Stream5_IRQHandler) refers to functions.o(i.Status_UpdateStatus) for Status_UpdateStatus
    stm32f4xx_it.o(i.DMA1_Stream5_IRQHandler) refers to functions.o(.bss) for U2
    stm32f4xx_it.o(i.DMA1_Stream5_IRQHandler) refers to usart_dma_config.o(.bss) for U2_RxBuffer
    stm32f4xx_it.o(i.DMA1_Stream5_IRQHandler) refers to functions.o(.bss) for GPS_NEO
    stm32f4xx_it.o(i.DMA1_Stream5_IRQHandler) refers to functions.o(.bss) for Veh
    stm32f4xx_it.o(i.DMA1_Stream5_IRQHandler) refers to functions.o(.bss) for Veh_Error
    stm32f4xx_it.o(i.DMA1_Stream5_IRQHandler) refers to functions.o(.bss) for VehStt
    stm32f4xx_it.o(i.DMA2_Stream2_IRQHandler) refers to stm32f4xx_dma.o(i.DMA_ClearITPendingBit) for DMA_ClearITPendingBit
    stm32f4xx_it.o(i.DMA2_Stream2_IRQHandler) refers to functions.o(i.Veh_GetCommandMessage) for Veh_GetCommandMessage
    stm32f4xx_it.o(i.DMA2_Stream2_IRQHandler) refers to functions.o(i.GetNbOfReceiveHeader) for GetNbOfReceiveHeader
    stm32f4xx_it.o(i.DMA2_Stream2_IRQHandler) refers to functions.o(i.StringHeaderCompare) for StringHeaderCompare
    stm32f4xx_it.o(i.DMA2_Stream2_IRQHandler) refers to functions.o(i.GetValueFromString) for GetValueFromString
    stm32f4xx_it.o(i.DMA2_Stream2_IRQHandler) refers to functions.o(i.IMU_UpdateFuzzyCoefficients) for IMU_UpdateFuzzyCoefficients
    stm32f4xx_it.o(i.DMA2_Stream2_IRQHandler) refers to functions.o(i.Status_UpdateStatus) for Status_UpdateStatus
    stm32f4xx_it.o(i.DMA2_Stream2_IRQHandler) refers to functions.o(i.ToRPM) for ToRPM
    stm32f4xx_it.o(i.DMA2_Stream2_IRQHandler) refers to functions.o(i.Veh_UpdateMaxVelocity) for Veh_UpdateMaxVelocity
    stm32f4xx_it.o(i.DMA2_Stream2_IRQHandler) refers to functions.o(i.PID_ParametersUpdate) for PID_ParametersUpdate
    stm32f4xx_it.o(i.DMA2_Stream2_IRQHandler) refers to dfixu.o(x$fpl$dfixu) for __aeabi_d2uiz
    stm32f4xx_it.o(i.DMA2_Stream2_IRQHandler) refers to functions.o(i.Time_SampleTimeUpdate) for Time_SampleTimeUpdate
    stm32f4xx_it.o(i.DMA2_Stream2_IRQHandler) refers to functions.o(i.Time_GetSampleTime) for Time_GetSampleTime
    stm32f4xx_it.o(i.DMA2_Stream2_IRQHandler) refers to functions.o(i.Time_SendTimeUpdate) for Time_SendTimeUpdate
    stm32f4xx_it.o(i.DMA2_Stream2_IRQHandler) refers to functions.o(i.FeedBack) for FeedBack
    stm32f4xx_it.o(i.DMA2_Stream2_IRQHandler) refers to usart_dma_config.o(i.U1_SendData) for U1_SendData
    stm32f4xx_it.o(i.DMA2_Stream2_IRQHandler) refers to stm32f4xx_it.o(i.Reset_Motor) for Reset_Motor
    stm32f4xx_it.o(i.DMA2_Stream2_IRQHandler) refers to encoder.o(i.Robot_AntiClockwise) for Robot_AntiClockwise
    stm32f4xx_it.o(i.DMA2_Stream2_IRQHandler) refers to functions.o(i.PID_UpdateSetVel) for PID_UpdateSetVel
    stm32f4xx_it.o(i.DMA2_Stream2_IRQHandler) refers to main.o(i.StartTimer) for StartTimer
    stm32f4xx_it.o(i.DMA2_Stream2_IRQHandler) refers to usart_dma_config.o(i.U6_SendData) for U6_SendData
    stm32f4xx_it.o(i.DMA2_Stream2_IRQHandler) refers to encoder.o(i.Robot_Forward) for Robot_Forward
    stm32f4xx_it.o(i.DMA2_Stream2_IRQHandler) refers to functions.o(i.Status_CheckStatus) for Status_CheckStatus
    stm32f4xx_it.o(i.DMA2_Stream2_IRQHandler) refers to functions.o(i.IMU_UpdateSetAngle) for IMU_UpdateSetAngle
    stm32f4xx_it.o(i.DMA2_Stream2_IRQHandler) refers to functions.o(i.GPS_UpdateParameters) for GPS_UpdateParameters
    stm32f4xx_it.o(i.DMA2_Stream2_IRQHandler) refers to functions.o(i.GPS_ClearPathBuffer) for GPS_ClearPathBuffer
    stm32f4xx_it.o(i.DMA2_Stream2_IRQHandler) refers to d2f.o(x$fpl$d2f) for __aeabi_d2f
    stm32f4xx_it.o(i.DMA2_Stream2_IRQHandler) refers to functions.o(i.GPS_PathPlanning) for GPS_PathPlanning
    stm32f4xx_it.o(i.DMA2_Stream2_IRQHandler) refers to functions.o(i.GPS_UpdatePathYaw) for GPS_UpdatePathYaw
    stm32f4xx_it.o(i.DMA2_Stream2_IRQHandler) refers to functions.o(i.GPS_UpdatePathCoordinate) for GPS_UpdatePathCoordinate
    stm32f4xx_it.o(i.DMA2_Stream2_IRQHandler) refers to stm32f4xx_dma.o(i.DMA_Cmd) for DMA_Cmd
    stm32f4xx_it.o(i.DMA2_Stream2_IRQHandler) refers to stm32f4xx_it.o(i.SaveDataToInternalFlash) for SaveDataToInternalFlash
    stm32f4xx_it.o(i.DMA2_Stream2_IRQHandler) refers to functions.o(.bss) for U6
    stm32f4xx_it.o(i.DMA2_Stream2_IRQHandler) refers to usart_dma_config.o(.bss) for U6_RxBuffer
    stm32f4xx_it.o(i.DMA2_Stream2_IRQHandler) refers to functions.o(.bss) for VehStt
    stm32f4xx_it.o(i.DMA2_Stream2_IRQHandler) refers to functions.o(.bss) for GPS_NEO
    stm32f4xx_it.o(i.DMA2_Stream2_IRQHandler) refers to functions.o(.bss) for Veh
    stm32f4xx_it.o(i.DMA2_Stream2_IRQHandler) refers to functions.o(.bss) for M1
    stm32f4xx_it.o(i.DMA2_Stream2_IRQHandler) refers to functions.o(.bss) for M2
    stm32f4xx_it.o(i.DMA2_Stream2_IRQHandler) refers to dflt_clz.o(x$fpl$dflt) for __aeabi_i2d
    stm32f4xx_it.o(i.DMA2_Stream2_IRQHandler) refers to ddiv.o(x$fpl$ddiv) for __aeabi_ddiv
    stm32f4xx_it.o(i.DMA2_Stream2_IRQHandler) refers to dmul.o(x$fpl$dmul) for __aeabi_dmul
    stm32f4xx_it.o(i.DMA2_Stream2_IRQHandler) refers to encoder.o(i.Robot_Clockwise) for Robot_Clockwise
    stm32f4xx_it.o(i.DMA2_Stream2_IRQHandler) refers to encoder.o(i.Robot_Backward) for Robot_Backward
    stm32f4xx_it.o(i.DMA2_Stream2_IRQHandler) refers to stm32f4xx_gpio.o(i.GPIO_ReadOutputDataBit) for GPIO_ReadOutputDataBit
    stm32f4xx_it.o(i.DMA2_Stream2_IRQHandler) refers to functions.o(i.Veh_CheckStateChange) for Veh_CheckStateChange
    stm32f4xx_it.o(i.DMA2_Stream5_IRQHandler) refers to stm32f4xx_dma.o(i.DMA_ClearITPendingBit) for DMA_ClearITPendingBit
    stm32f4xx_it.o(i.DMA2_Stream5_IRQHandler) refers to functions.o(i.IMU_GetValueFromMessage) for IMU_GetValueFromMessage
    stm32f4xx_it.o(i.DMA2_Stream5_IRQHandler) refers to functions.o(i.Error_AppendError) for Error_AppendError
    stm32f4xx_it.o(i.DMA2_Stream5_IRQHandler) refers to functions.o(i.Status_CheckStatus) for Status_CheckStatus
    stm32f4xx_it.o(i.DMA2_Stream5_IRQHandler) refers to deqf.o(x$fpl$deqf) for __aeabi_cdcmpeq
    stm32f4xx_it.o(i.DMA2_Stream5_IRQHandler) refers to functions.o(i.IMU_UpdateSetAngle) for IMU_UpdateSetAngle
    stm32f4xx_it.o(i.DMA2_Stream5_IRQHandler) refers to functions.o(i.Status_UpdateStatus) for Status_UpdateStatus
    stm32f4xx_it.o(i.DMA2_Stream5_IRQHandler) refers to stm32f4xx_dma.o(i.DMA_Cmd) for DMA_Cmd
    stm32f4xx_it.o(i.DMA2_Stream5_IRQHandler) refers to usart_dma_config.o(.bss) for U1_RxBuffer
    stm32f4xx_it.o(i.DMA2_Stream5_IRQHandler) refers to functions.o(.bss) for Mag
    stm32f4xx_it.o(i.DMA2_Stream5_IRQHandler) refers to functions.o(.bss) for Veh
    stm32f4xx_it.o(i.DMA2_Stream5_IRQHandler) refers to functions.o(.bss) for Veh_Error
    stm32f4xx_it.o(i.DMA2_Stream5_IRQHandler) refers to functions.o(.bss) for VehStt
    stm32f4xx_it.o(i.GetVehicleVelocity) refers to stm32f4xx_gpio.o(i.GPIO_ReadOutputDataBit) for GPIO_ReadOutputDataBit
    stm32f4xx_it.o(i.GetVehicleVelocity) refers to dflt_clz.o(x$fpl$dflt) for __aeabi_i2d
    stm32f4xx_it.o(i.GetVehicleVelocity) refers to ddiv.o(x$fpl$ddiv) for __aeabi_ddiv
    stm32f4xx_it.o(i.GetVehicleVelocity) refers to dmul.o(x$fpl$dmul) for __aeabi_dmul
    stm32f4xx_it.o(i.GetVehicleVelocity) refers to dleqf.o(x$fpl$dleqf) for __aeabi_cdcmple
    stm32f4xx_it.o(i.GetVehicleVelocity) refers to functions.o(.bss) for Timer
    stm32f4xx_it.o(i.GetVehicleVelocity) refers to functions.o(.bss) for M1
    stm32f4xx_it.o(i.GetVehicleVelocity) refers to functions.o(.bss) for M2
    stm32f4xx_it.o(i.Reset_Motor) refers to functions.o(i.PID_UpdateSetVel) for PID_UpdateSetVel
    stm32f4xx_it.o(i.Reset_Motor) refers to functions.o(i.PID_ResetPID) for PID_ResetPID
    stm32f4xx_it.o(i.Reset_Motor) refers to encoder.o(i.Stop_Motor) for Stop_Motor
    stm32f4xx_it.o(i.Reset_Motor) refers to functions.o(i.Status_UpdateStatus) for Status_UpdateStatus
    stm32f4xx_it.o(i.Reset_Motor) refers to functions.o(.bss) for M1
    stm32f4xx_it.o(i.Reset_Motor) refers to functions.o(.bss) for M2
    stm32f4xx_it.o(i.Reset_Motor) refers to functions.o(.bss) for Veh
    stm32f4xx_it.o(i.Reset_Motor) refers to functions.o(.bss) for VehStt
    stm32f4xx_it.o(i.SaveDataToInternalFlash) refers to functions.o(i.GPS_SavePathCoordinateToFlash) for GPS_SavePathCoordinateToFlash
    stm32f4xx_it.o(i.SaveDataToInternalFlash) refers to functions.o(i.PID_SavePIDParaToFlash) for PID_SavePIDParaToFlash
    stm32f4xx_it.o(i.SaveDataToInternalFlash) refers to functions.o(.bss) for Flash
    stm32f4xx_it.o(i.SaveDataToInternalFlash) refers to functions.o(.bss) for M2
    stm32f4xx_it.o(i.SaveDataToInternalFlash) refers to functions.o(.bss) for M1
    stm32f4xx_it.o(i.SysTick_Handler) refers to functions.o(i.Status_CheckStatus) for Status_CheckStatus
    stm32f4xx_it.o(i.SysTick_Handler) refers to functions.o(i.Status_UpdateStatus) for Status_UpdateStatus
    stm32f4xx_it.o(i.SysTick_Handler) refers to functions.o(.bss) for VehStt
    stm32f4xx_it.o(i.SysTick_Handler) refers to functions.o(.bss) for Timer
    stm32f4xx_it.o(i.TIM2_IRQHandler) refers to stm32f4xx_tim.o(i.TIM_GetFlagStatus) for TIM_GetFlagStatus
    stm32f4xx_it.o(i.TIM2_IRQHandler) refers to stm32f4xx_tim.o(i.TIM_ClearITPendingBit) for TIM_ClearITPendingBit
    stm32f4xx_it.o(i.TIM2_IRQHandler) refers to stm32f4xx_gpio.o(i.GPIO_ReadInputDataBit) for GPIO_ReadInputDataBit
    stm32f4xx_it.o(i.TIM2_IRQHandler) refers to stm32f4xx_tim.o(i.TIM_GetCounter) for TIM_GetCounter
    stm32f4xx_it.o(i.TIM2_IRQHandler) refers to dflt_clz.o(x$fpl$dfltu) for __aeabi_ui2d
    stm32f4xx_it.o(i.TIM2_IRQHandler) refers to ddiv.o(x$fpl$ddiv) for __aeabi_ddiv
    stm32f4xx_it.o(i.TIM2_IRQHandler) refers to dmul.o(x$fpl$dmul) for __aeabi_dmul
    stm32f4xx_it.o(i.TIM2_IRQHandler) refers to stm32f4xx_tim.o(i.TIM_GetCapture3) for TIM_GetCapture3
    stm32f4xx_it.o(i.TIM2_IRQHandler) refers to stm32f4xx_tim.o(i.TIM_GetCapture4) for TIM_GetCapture4
    stm32f4xx_it.o(i.TIM2_IRQHandler) refers to srf05.o(i.Srf05_SetFlag) for Srf05_SetFlag
    stm32f4xx_it.o(i.TIM2_IRQHandler) refers to main.o(.bss) for Mid
    stm32f4xx_it.o(i.TIM3_IRQHandler) refers to stm32f4xx_tim.o(i.TIM_ClearITPendingBit) for TIM_ClearITPendingBit
    stm32f4xx_it.o(i.TIM3_IRQHandler) refers to functions.o(.bss) for M1
    stm32f4xx_it.o(i.TIM4_IRQHandler) refers to stm32f4xx_tim.o(i.TIM_ClearITPendingBit) for TIM_ClearITPendingBit
    stm32f4xx_it.o(i.TIM4_IRQHandler) refers to functions.o(.bss) for M2
    stm32f4xx_it.o(i.USART1_IRQHandler) refers to stm32f4xx_usart.o(i.USART_GetITStatus) for USART_GetITStatus
    stm32f4xx_it.o(i.USART1_IRQHandler) refers to stm32f4xx_usart.o(i.USART_ClearFlag) for USART_ClearFlag
    stm32f4xx_it.o(i.USART1_IRQHandler) refers to stm32f4xx_usart.o(i.USART_ReceiveData) for USART_ReceiveData
    stm32f4xx_it.o(i.USART1_IRQHandler) refers to stm32f4xx_dma.o(i.DMA_Cmd) for DMA_Cmd
    stm32f4xx_it.o(i.USART1_IRQHandler) refers to stm32f4xx_it.o(.data) for .data
    stm32f4xx_it.o(i.USART2_IRQHandler) refers to stm32f4xx_usart.o(i.USART_GetITStatus) for USART_GetITStatus
    stm32f4xx_it.o(i.USART2_IRQHandler) refers to stm32f4xx_usart.o(i.USART_ClearFlag) for USART_ClearFlag
    stm32f4xx_it.o(i.USART2_IRQHandler) refers to stm32f4xx_usart.o(i.USART_ReceiveData) for USART_ReceiveData
    stm32f4xx_it.o(i.USART2_IRQHandler) refers to stm32f4xx_dma.o(i.DMA_Cmd) for DMA_Cmd
    stm32f4xx_it.o(i.USART2_IRQHandler) refers to stm32f4xx_it.o(.data) for .data
    stm32f4xx_it.o(i.USART6_IRQHandler) refers to stm32f4xx_usart.o(i.USART_GetITStatus) for USART_GetITStatus
    stm32f4xx_it.o(i.USART6_IRQHandler) refers to stm32f4xx_usart.o(i.USART_ClearFlag) for USART_ClearFlag
    stm32f4xx_it.o(i.USART6_IRQHandler) refers to stm32f4xx_usart.o(i.USART_ReceiveData) for USART_ReceiveData
    stm32f4xx_it.o(i.USART6_IRQHandler) refers to stm32f4xx_dma.o(i.DMA_Cmd) for DMA_Cmd
    stm32f4xx_it.o(i.USART6_IRQHandler) refers to stm32f4xx_it.o(.data) for .data
    encoder.o(i.DirPinConfig) refers to stm32f4xx_rcc.o(i.RCC_AHB1PeriphClockCmd) for RCC_AHB1PeriphClockCmd
    encoder.o(i.DirPinConfig) refers to stm32f4xx_gpio.o(i.GPIO_Init) for GPIO_Init
    encoder.o(i.DirPinConfig) refers to encoder.o(.data) for .data
    encoder.o(i.Encoder_Config) refers to encoder.o(i.M1_Encoder_Config) for M1_Encoder_Config
    encoder.o(i.Encoder_Config) refers to encoder.o(i.M2_Encoder_Config) for M2_Encoder_Config
    encoder.o(i.Encoder_Config) refers to encoder.o(i.PWM_Config) for PWM_Config
    encoder.o(i.Encoder_Config) refers to encoder.o(i.DirPinConfig) for DirPinConfig
    encoder.o(i.Encoder_Config) refers to encoder.o(i.Robot_Forward) for Robot_Forward
    encoder.o(i.M1_Backward) refers to stm32f4xx_gpio.o(i.GPIO_ResetBits) for GPIO_ResetBits
    encoder.o(i.M1_Encoder_Config) refers to stm32f4xx_rcc.o(i.RCC_AHB1PeriphClockCmd) for RCC_AHB1PeriphClockCmd
    encoder.o(i.M1_Encoder_Config) refers to stm32f4xx_rcc.o(i.RCC_APB1PeriphClockCmd) for RCC_APB1PeriphClockCmd
    encoder.o(i.M1_Encoder_Config) refers to stm32f4xx_gpio.o(i.GPIO_Init) for GPIO_Init
    encoder.o(i.M1_Encoder_Config) refers to stm32f4xx_gpio.o(i.GPIO_PinAFConfig) for GPIO_PinAFConfig
    encoder.o(i.M1_Encoder_Config) refers to stm32f4xx_tim.o(i.TIM_TimeBaseInit) for TIM_TimeBaseInit
    encoder.o(i.M1_Encoder_Config) refers to stm32f4xx_tim.o(i.TIM_ARRPreloadConfig) for TIM_ARRPreloadConfig
    encoder.o(i.M1_Encoder_Config) refers to stm32f4xx_tim.o(i.TIM_EncoderInterfaceConfig) for TIM_EncoderInterfaceConfig
    encoder.o(i.M1_Encoder_Config) refers to misc.o(i.NVIC_Init) for NVIC_Init
    encoder.o(i.M1_Encoder_Config) refers to stm32f4xx_tim.o(i.TIM_ITConfig) for TIM_ITConfig
    encoder.o(i.M1_Encoder_Config) refers to stm32f4xx_tim.o(i.TIM_Cmd) for TIM_Cmd
    encoder.o(i.M1_Encoder_Config) refers to encoder.o(.data) for .data
    encoder.o(i.M1_Encoder_Config) refers to encoder.o(.bss) for .bss
    encoder.o(i.M1_Forward) refers to stm32f4xx_gpio.o(i.GPIO_SetBits) for GPIO_SetBits
    encoder.o(i.M2_Backward) refers to stm32f4xx_gpio.o(i.GPIO_ResetBits) for GPIO_ResetBits
    encoder.o(i.M2_Encoder_Config) refers to stm32f4xx_rcc.o(i.RCC_AHB1PeriphClockCmd) for RCC_AHB1PeriphClockCmd
    encoder.o(i.M2_Encoder_Config) refers to stm32f4xx_rcc.o(i.RCC_APB1PeriphClockCmd) for RCC_APB1PeriphClockCmd
    encoder.o(i.M2_Encoder_Config) refers to stm32f4xx_gpio.o(i.GPIO_Init) for GPIO_Init
    encoder.o(i.M2_Encoder_Config) refers to stm32f4xx_gpio.o(i.GPIO_PinAFConfig) for GPIO_PinAFConfig
    encoder.o(i.M2_Encoder_Config) refers to stm32f4xx_tim.o(i.TIM_TimeBaseInit) for TIM_TimeBaseInit
    encoder.o(i.M2_Encoder_Config) refers to stm32f4xx_tim.o(i.TIM_ARRPreloadConfig) for TIM_ARRPreloadConfig
    encoder.o(i.M2_Encoder_Config) refers to stm32f4xx_tim.o(i.TIM_EncoderInterfaceConfig) for TIM_EncoderInterfaceConfig
    encoder.o(i.M2_Encoder_Config) refers to misc.o(i.NVIC_Init) for NVIC_Init
    encoder.o(i.M2_Encoder_Config) refers to stm32f4xx_tim.o(i.TIM_ITConfig) for TIM_ITConfig
    encoder.o(i.M2_Encoder_Config) refers to stm32f4xx_tim.o(i.TIM_Cmd) for TIM_Cmd
    encoder.o(i.M2_Encoder_Config) refers to encoder.o(.data) for .data
    encoder.o(i.M2_Encoder_Config) refers to encoder.o(.bss) for .bss
    encoder.o(i.M2_Forward) refers to stm32f4xx_gpio.o(i.GPIO_SetBits) for GPIO_SetBits
    encoder.o(i.PWM_Config) refers to stm32f4xx_rcc.o(i.RCC_APB2PeriphClockCmd) for RCC_APB2PeriphClockCmd
    encoder.o(i.PWM_Config) refers to stm32f4xx_rcc.o(i.RCC_AHB1PeriphClockCmd) for RCC_AHB1PeriphClockCmd
    encoder.o(i.PWM_Config) refers to stm32f4xx_gpio.o(i.GPIO_Init) for GPIO_Init
    encoder.o(i.PWM_Config) refers to stm32f4xx_gpio.o(i.GPIO_PinAFConfig) for GPIO_PinAFConfig
    encoder.o(i.PWM_Config) refers to stm32f4xx_tim.o(i.TIM_TimeBaseInit) for TIM_TimeBaseInit
    encoder.o(i.PWM_Config) refers to stm32f4xx_tim.o(i.TIM_OC1Init) for TIM_OC1Init
    encoder.o(i.PWM_Config) refers to stm32f4xx_tim.o(i.TIM_OC1PreloadConfig) for TIM_OC1PreloadConfig
    encoder.o(i.PWM_Config) refers to stm32f4xx_tim.o(i.TIM_OC2Init) for TIM_OC2Init
    encoder.o(i.PWM_Config) refers to stm32f4xx_tim.o(i.TIM_OC2PreloadConfig) for TIM_OC2PreloadConfig
    encoder.o(i.PWM_Config) refers to stm32f4xx_tim.o(i.TIM_Cmd) for TIM_Cmd
    encoder.o(i.PWM_Config) refers to encoder.o(.data) for .data
    encoder.o(i.PWM_Config) refers to encoder.o(.bss) for .bss
    encoder.o(i.Robot_AntiClockwise) refers to encoder.o(i.M1_Forward) for M1_Forward
    encoder.o(i.Robot_AntiClockwise) refers to encoder.o(i.M2_Backward) for M2_Backward
    encoder.o(i.Robot_Backward) refers to encoder.o(i.M1_Backward) for M1_Backward
    encoder.o(i.Robot_Backward) refers to encoder.o(i.M2_Backward) for M2_Backward
    encoder.o(i.Robot_Clockwise) refers to encoder.o(i.M1_Backward) for M1_Backward
    encoder.o(i.Robot_Clockwise) refers to encoder.o(i.M2_Forward) for M2_Forward
    encoder.o(i.Robot_Forward) refers to encoder.o(i.M1_Forward) for M1_Forward
    encoder.o(i.Robot_Forward) refers to encoder.o(i.M2_Forward) for M2_Forward
    encoder.o(i.Robot_Run) refers to fabs.o(i.__hardfp_fabs) for __hardfp_fabs
    encoder.o(i.Robot_Run) refers to dmul.o(x$fpl$dmul) for __aeabi_dmul
    encoder.o(i.Robot_Run) refers to ddiv.o(x$fpl$ddiv) for __aeabi_ddiv
    encoder.o(i.Robot_Run) refers to dfixu.o(x$fpl$dfixu) for __aeabi_d2uiz
    stm32f4xx_delay.o(i.TIM16_Delay_MS) refers to stm32f411_rccenable.o(i.RCC_TIMxClockCmd) for RCC_TIMxClockCmd
    stm32f4xx_delay.o(i.TIM16_Delay_US) refers to stm32f411_rccenable.o(i.RCC_TIMxClockCmd) for RCC_TIMxClockCmd
    usart_dma_config.o(i.U1_SendData) refers to stm32f4xx_dma.o(i.DMA_ClearFlag) for DMA_ClearFlag
    usart_dma_config.o(i.U1_SendData) refers to stm32f4xx_dma.o(i.DMA_Cmd) for DMA_Cmd
    usart_dma_config.o(i.U2_SendData) refers to stm32f4xx_dma.o(i.DMA_ClearFlag) for DMA_ClearFlag
    usart_dma_config.o(i.U2_SendData) refers to stm32f4xx_dma.o(i.DMA_Cmd) for DMA_Cmd
    usart_dma_config.o(i.U6_SendData) refers to stm32f4xx_dma.o(i.DMA_ClearFlag) for DMA_ClearFlag
    usart_dma_config.o(i.U6_SendData) refers to stm32f4xx_dma.o(i.DMA_Cmd) for DMA_Cmd
    usart_dma_config.o(i.USART1_Config) refers to stm32f4xx_rcc.o(i.RCC_APB2PeriphClockCmd) for RCC_APB2PeriphClockCmd
    usart_dma_config.o(i.USART1_Config) refers to stm32f4xx_rcc.o(i.RCC_AHB1PeriphClockCmd) for RCC_AHB1PeriphClockCmd
    usart_dma_config.o(i.USART1_Config) refers to stm32f4xx_gpio.o(i.GPIO_Init) for GPIO_Init
    usart_dma_config.o(i.USART1_Config) refers to stm32f4xx_gpio.o(i.GPIO_PinAFConfig) for GPIO_PinAFConfig
    usart_dma_config.o(i.USART1_Config) refers to stm32f4xx_usart.o(i.USART_Init) for USART_Init
    usart_dma_config.o(i.USART1_Config) refers to stm32f4xx_usart.o(i.USART_Cmd) for USART_Cmd
    usart_dma_config.o(i.USART1_Config) refers to stm32f4xx_usart.o(i.USART_DMACmd) for USART_DMACmd
    usart_dma_config.o(i.USART1_Config) refers to stm32f4xx_usart.o(i.USART_ITConfig) for USART_ITConfig
    usart_dma_config.o(i.USART1_Config) refers to misc.o(i.NVIC_Init) for NVIC_Init
    usart_dma_config.o(i.USART1_Config) refers to stm32f4xx_dma.o(i.DMA_Init) for DMA_Init
    usart_dma_config.o(i.USART1_Config) refers to stm32f4xx_dma.o(i.DMA_Cmd) for DMA_Cmd
    usart_dma_config.o(i.USART1_Config) refers to stm32f4xx_dma.o(i.DMA_ITConfig) for DMA_ITConfig
    usart_dma_config.o(i.USART1_Config) refers to usart_dma_config.o(.data) for .data
    usart_dma_config.o(i.USART1_Config) refers to usart_dma_config.o(.bss) for .bss
    usart_dma_config.o(i.USART2_Config) refers to stm32f4xx_rcc.o(i.RCC_APB1PeriphClockCmd) for RCC_APB1PeriphClockCmd
    usart_dma_config.o(i.USART2_Config) refers to stm32f4xx_rcc.o(i.RCC_AHB1PeriphClockCmd) for RCC_AHB1PeriphClockCmd
    usart_dma_config.o(i.USART2_Config) refers to stm32f4xx_gpio.o(i.GPIO_Init) for GPIO_Init
    usart_dma_config.o(i.USART2_Config) refers to stm32f4xx_gpio.o(i.GPIO_PinAFConfig) for GPIO_PinAFConfig
    usart_dma_config.o(i.USART2_Config) refers to stm32f4xx_usart.o(i.USART_Init) for USART_Init
    usart_dma_config.o(i.USART2_Config) refers to stm32f4xx_usart.o(i.USART_Cmd) for USART_Cmd
    usart_dma_config.o(i.USART2_Config) refers to stm32f4xx_usart.o(i.USART_DMACmd) for USART_DMACmd
    usart_dma_config.o(i.USART2_Config) refers to stm32f4xx_usart.o(i.USART_ITConfig) for USART_ITConfig
    usart_dma_config.o(i.USART2_Config) refers to misc.o(i.NVIC_Init) for NVIC_Init
    usart_dma_config.o(i.USART2_Config) refers to stm32f4xx_dma.o(i.DMA_Init) for DMA_Init
    usart_dma_config.o(i.USART2_Config) refers to stm32f4xx_dma.o(i.DMA_Cmd) for DMA_Cmd
    usart_dma_config.o(i.USART2_Config) refers to stm32f4xx_dma.o(i.DMA_ITConfig) for DMA_ITConfig
    usart_dma_config.o(i.USART2_Config) refers to usart_dma_config.o(.data) for .data
    usart_dma_config.o(i.USART2_Config) refers to usart_dma_config.o(.bss) for .bss
    usart_dma_config.o(i.USART6_Config) refers to stm32f4xx_rcc.o(i.RCC_APB2PeriphClockCmd) for RCC_APB2PeriphClockCmd
    usart_dma_config.o(i.USART6_Config) refers to stm32f4xx_rcc.o(i.RCC_AHB1PeriphClockCmd) for RCC_AHB1PeriphClockCmd
    usart_dma_config.o(i.USART6_Config) refers to stm32f4xx_gpio.o(i.GPIO_Init) for GPIO_Init
    usart_dma_config.o(i.USART6_Config) refers to stm32f4xx_gpio.o(i.GPIO_PinAFConfig) for GPIO_PinAFConfig
    usart_dma_config.o(i.USART6_Config) refers to stm32f4xx_usart.o(i.USART_Init) for USART_Init
    usart_dma_config.o(i.USART6_Config) refers to stm32f4xx_usart.o(i.USART_Cmd) for USART_Cmd
    usart_dma_config.o(i.USART6_Config) refers to stm32f4xx_usart.o(i.USART_DMACmd) for USART_DMACmd
    usart_dma_config.o(i.USART6_Config) refers to stm32f4xx_usart.o(i.USART_ITConfig) for USART_ITConfig
    usart_dma_config.o(i.USART6_Config) refers to misc.o(i.NVIC_Init) for NVIC_Init
    usart_dma_config.o(i.USART6_Config) refers to stm32f4xx_dma.o(i.DMA_Init) for DMA_Init
    usart_dma_config.o(i.USART6_Config) refers to stm32f4xx_dma.o(i.DMA_Cmd) for DMA_Cmd
    usart_dma_config.o(i.USART6_Config) refers to stm32f4xx_dma.o(i.DMA_ITConfig) for DMA_ITConfig
    usart_dma_config.o(i.USART6_Config) refers to usart_dma_config.o(.data) for .data
    usart_dma_config.o(i.USART6_Config) refers to usart_dma_config.o(.bss) for .bss
    functions.o(i.Defuzzification_Max_Min) refers to functions.o(i.Trapf) for Trapf
    functions.o(i.Defuzzification_Max_Min) refers to functions.o(i.Fuzzy_Min) for Fuzzy_Min
    functions.o(i.Defuzzification_Max_Min) refers to dmul.o(x$fpl$dmul) for __aeabi_dmul
    functions.o(i.Defuzzification_Max_Min) refers to functions.o(i.Trimf) for Trimf
    functions.o(i.Defuzzification_Max_Min) refers to functions.o(i.Fuzzy_Max) for Fuzzy_Max
    functions.o(i.Defuzzification_Max_Min) refers to daddsub_clz.o(x$fpl$dadd) for __aeabi_dadd
    functions.o(i.Defuzzification_Max_Min) refers to functions.o(.bss) for .bss
    functions.o(i.Defuzzification_Max_Min) refers to functions.o(.data) for .data
    functions.o(i.Defuzzification_Max_Min) refers to deqf.o(x$fpl$deqf) for __aeabi_cdcmpeq
    functions.o(i.Defuzzification_Max_Min) refers to ddiv.o(x$fpl$ddiv) for __aeabi_ddiv
    functions.o(i.Degree_To_Degree) refers to drleqf.o(x$fpl$drleqf) for __aeabi_cdrcmple
    functions.o(i.Degree_To_Degree) refers to daddsub_clz.o(x$fpl$dsub) for __aeabi_dsub
    functions.o(i.Degree_To_Degree) refers to dleqf.o(x$fpl$dleqf) for __aeabi_cdcmple
    functions.o(i.Degree_To_Degree) refers to daddsub_clz.o(x$fpl$dadd) for __aeabi_dadd
    functions.o(i.EraseMemory) refers to stm32f4xx_flash.o(i.FLASH_Unlock) for FLASH_Unlock
    functions.o(i.EraseMemory) refers to stm32f4xx_flash.o(i.FLASH_EraseSector) for FLASH_EraseSector
    functions.o(i.EraseMemory) refers to stm32f4xx_flash.o(i.FLASH_Lock) for FLASH_Lock
    functions.o(i.FeedBack) refers to functions.o(i.IsDataTransferCompleted) for IsDataTransferCompleted
    functions.o(i.Fuzzy_Max) refers to dleqf.o(x$fpl$dleqf) for __aeabi_cdcmple
    functions.o(i.Fuzzy_Min) refers to drleqf.o(x$fpl$drleqf) for __aeabi_cdrcmple
    functions.o(i.Fuzzy_ParametersInit) refers to functions.o(.bss) for .bss
    functions.o(i.Fuzzy_ParametersInit) refers to functions.o(.data) for .data
    functions.o(i.GPS_GetCoordinateMessage) refers to functions.o(i.GetMessageInfo) for GetMessageInfo
    functions.o(i.GPS_GetCoordinateMessage) refers to functions.o(i.IsCorrectMessage) for IsCorrectMessage
    functions.o(i.GPS_GetLLQMessage) refers to functions.o(i.GPS_HeaderCompare) for GPS_HeaderCompare
    functions.o(i.GPS_GetLLQMessage) refers to functions.o(i.LengthOfLine) for LengthOfLine
    functions.o(i.GPS_GetLLQMessage) refers to functions.o(i.GetMessageInfo) for GetMessageInfo
    functions.o(i.GPS_GetLLQMessage) refers to functions.o(i.IsCorrectMessage) for IsCorrectMessage
    functions.o(i.GPS_GetLLQMessage) refers to functions.o(i.IsValidData) for IsValidData
    functions.o(i.GPS_GetLLQMessage) refers to functions.o(i.GPS_GetLatFromString) for GPS_GetLatFromString
    functions.o(i.GPS_GetLLQMessage) refers to functions.o(i.GPS_GetLonFromString) for GPS_GetLonFromString
    functions.o(i.GPS_GetLLQMessage) refers to functions.o(i.GPS_LatLonToUTM) for GPS_LatLonToUTM
    functions.o(i.GPS_GetLLQMessage) refers to functions.o(i.GetValueFromString) for GetValueFromString
    functions.o(i.GPS_GetLLQMessage) refers to dfixu.o(x$fpl$dfixu) for __aeabi_d2uiz
    functions.o(i.GPS_GetLLQMessage) refers to functions.o(.bss) for .bss
    functions.o(i.GPS_GetLatFromString) refers to dflt_clz.o(x$fpl$dflt) for __aeabi_i2d
    functions.o(i.GPS_GetLatFromString) refers to daddsub_clz.o(x$fpl$dadd) for __aeabi_dadd
    functions.o(i.GPS_GetLatFromString) refers to ddiv.o(x$fpl$ddiv) for __aeabi_ddiv
    functions.o(i.GPS_GetLatFromString) refers to functions.o(i.GPS_LLToDegree) for GPS_LLToDegree
    functions.o(i.GPS_GetLonFromString) refers to dflt_clz.o(x$fpl$dflt) for __aeabi_i2d
    functions.o(i.GPS_GetLonFromString) refers to daddsub_clz.o(x$fpl$dadd) for __aeabi_dadd
    functions.o(i.GPS_GetLonFromString) refers to ddiv.o(x$fpl$ddiv) for __aeabi_ddiv
    functions.o(i.GPS_GetLonFromString) refers to functions.o(i.GPS_LLToDegree) for GPS_LLToDegree
    functions.o(i.GPS_GetQualityFromString) refers to functions.o(i.GetMessageInfo) for GetMessageInfo
    functions.o(i.GPS_GetQualityFromString) refers to functions.o(i.LengthOfLine) for LengthOfLine
    functions.o(i.GPS_GetQualityFromString) refers to functions.o(i.IsCorrectMessage) for IsCorrectMessage
    functions.o(i.GPS_LLToDegree) refers to ddiv.o(x$fpl$ddiv) for __aeabi_ddiv
    functions.o(i.GPS_LLToDegree) refers to dfix.o(x$fpl$dfix) for __aeabi_d2iz
    functions.o(i.GPS_LLToDegree) refers to dflt_clz.o(x$fpl$dflt) for __aeabi_i2d
    functions.o(i.GPS_LLToDegree) refers to dmul.o(x$fpl$dmul) for __aeabi_dmul
    functions.o(i.GPS_LLToDegree) refers to daddsub_clz.o(x$fpl$dsub) for __aeabi_dsub
    functions.o(i.GPS_LLToDegree) refers to daddsub_clz.o(x$fpl$dadd) for __aeabi_dadd
    functions.o(i.GPS_LatLonToUTM) refers to pow.o(i.__hardfp_pow) for __hardfp_pow
    functions.o(i.GPS_LatLonToUTM) refers to daddsub_clz.o(x$fpl$dsub) for __aeabi_dsub
    functions.o(i.GPS_LatLonToUTM) refers to ddiv.o(x$fpl$ddiv) for __aeabi_ddiv
    functions.o(i.GPS_LatLonToUTM) refers to dmul.o(x$fpl$dmul) for __aeabi_dmul
    functions.o(i.GPS_LatLonToUTM) refers to daddsub_clz.o(x$fpl$dadd) for __aeabi_dadd
    functions.o(i.GPS_LatLonToUTM) refers to functions.o(i.fix) for fix
    functions.o(i.GPS_LatLonToUTM) refers to daddsub_clz.o(x$fpl$drsb) for __aeabi_drsub
    functions.o(i.GPS_LatLonToUTM) refers to sin.o(i.__hardfp_sin) for __hardfp_sin
    functions.o(i.GPS_LatLonToUTM) refers to cos.o(i.__hardfp_cos) for __hardfp_cos
    functions.o(i.GPS_LatLonToUTM) refers to log.o(i.__hardfp_log) for __hardfp_log
    functions.o(i.GPS_LatLonToUTM) refers to tan.o(i.__hardfp_tan) for __hardfp_tan
    functions.o(i.GPS_LatLonToUTM) refers to atan.o(i.__hardfp_atan) for __hardfp_atan
    functions.o(i.GPS_LatLonToUTM) refers to dleqf.o(x$fpl$dleqf) for __aeabi_cdcmple
    functions.o(i.GPS_PathPlanning) refers to daddsub_clz.o(x$fpl$dsub) for __aeabi_dsub
    functions.o(i.GPS_PathPlanning) refers to ddiv.o(x$fpl$ddiv) for __aeabi_ddiv
    functions.o(i.GPS_PathPlanning) refers to dmul.o(x$fpl$dmul) for __aeabi_dmul
    functions.o(i.GPS_PathPlanning) refers to daddsub_clz.o(x$fpl$drsb) for __aeabi_drsub
    functions.o(i.GPS_PathPlanning) refers to dleqf.o(x$fpl$dleqf) for __aeabi_cdcmple
    functions.o(i.GPS_PathPlanning) refers to daddsub_clz.o(x$fpl$dadd) for __aeabi_dadd
    functions.o(i.GPS_PathPlanning) refers to f2d.o(x$fpl$f2d) for __aeabi_f2d
    functions.o(i.GPS_PathPlanning) refers to drleqf.o(x$fpl$drleqf) for __aeabi_cdrcmple
    functions.o(i.GPS_SavePathCoordinateToFlash) refers to dflt_clz.o(x$fpl$dflt) for __aeabi_i2d
    functions.o(i.GPS_SavePathCoordinateToFlash) refers to functions.o(i.ToChar) for ToChar
    functions.o(i.GPS_SavePathCoordinateToFlash) refers to functions.o(i.EraseMemory) for EraseMemory
    functions.o(i.GPS_SavePathCoordinateToFlash) refers to functions.o(i.WriteToFlash) for WriteToFlash
    functions.o(i.GPS_StanleyControl) refers to dmul.o(x$fpl$dmul) for __aeabi_dmul
    functions.o(i.GPS_StanleyControl) refers to ddiv.o(x$fpl$ddiv) for __aeabi_ddiv
    functions.o(i.GPS_StanleyControl) refers to functions.o(i.Pi_To_Pi) for Pi_To_Pi
    functions.o(i.GPS_StanleyControl) refers to daddsub_clz.o(x$fpl$dadd) for __aeabi_dadd
    functions.o(i.GPS_StanleyControl) refers to daddsub_clz.o(x$fpl$dsub) for __aeabi_dsub
    functions.o(i.GPS_StanleyControl) refers to pow.o(i.__hardfp_pow) for __hardfp_pow
    functions.o(i.GPS_StanleyControl) refers to sqrt.o(i.__hardfp_sqrt) for __hardfp_sqrt
    functions.o(i.GPS_StanleyControl) refers to drleqf.o(x$fpl$drleqf) for __aeabi_cdrcmple
    functions.o(i.GPS_StanleyControl) refers to cos.o(i.__hardfp_cos) for __hardfp_cos
    functions.o(i.GPS_StanleyControl) refers to sin.o(i.__hardfp_sin) for __hardfp_sin
    functions.o(i.GPS_StanleyControl) refers to dleqf.o(x$fpl$dleqf) for __aeabi_cdcmple
    functions.o(i.GPS_StanleyControl) refers to atan2.o(i.__hardfp_atan2) for __hardfp_atan2
    functions.o(i.GPS_StanleyControl) refers to functions.o(i.Degree_To_Degree) for Degree_To_Degree
    functions.o(i.GPS_StanleyControl) refers to functions.o(.bss) for .bss
    functions.o(i.GPS_UpdatePathCoordinate) refers to functions.o(i.GetMessageInfo) for GetMessageInfo
    functions.o(i.GPS_UpdatePathCoordinate) refers to functions.o(i.GetValueFromString) for GetValueFromString
    functions.o(i.GPS_UpdatePathCoordinate) refers to functions.o(i.GPS_LatLonToUTM) for GPS_LatLonToUTM
    functions.o(i.GPS_UpdatePathYaw) refers to daddsub_clz.o(x$fpl$dsub) for __aeabi_dsub
    functions.o(i.GPS_UpdatePathYaw) refers to atan2.o(i.__hardfp_atan2) for __hardfp_atan2
    functions.o(i.GetNbOfReceiveHeader) refers to functions.o(i.StringHeaderCompare) for StringHeaderCompare
    functions.o(i.GetValueFromString) refers to dflt_clz.o(x$fpl$dflt) for __aeabi_i2d
    functions.o(i.GetValueFromString) refers to dmul.o(x$fpl$dmul) for __aeabi_dmul
    functions.o(i.GetValueFromString) refers to daddsub_clz.o(x$fpl$dadd) for __aeabi_dadd
    functions.o(i.GetValueFromString) refers to functions.o(.bss) for .bss
    functions.o(i.IMU_GetValueFromMessage) refers to dflt_clz.o(x$fpl$dflt) for __aeabi_i2d
    functions.o(i.IMU_GetValueFromMessage) refers to daddsub_clz.o(x$fpl$dadd) for __aeabi_dadd
    functions.o(i.IMU_GetValueFromMessage) refers to ddiv.o(x$fpl$ddiv) for __aeabi_ddiv
    functions.o(i.IMU_GetValueFromMessage) refers to basic.o(x$fpl$basic) for __aeabi_dneg
    functions.o(i.IMU_UpdateFuzzyInput) refers to daddsub_clz.o(x$fpl$dsub) for __aeabi_dsub
    functions.o(i.IMU_UpdateFuzzyInput) refers to ddiv.o(x$fpl$ddiv) for __aeabi_ddiv
    functions.o(i.IMU_UpdateFuzzyInput) refers to drleqf.o(x$fpl$drleqf) for __aeabi_cdrcmple
    functions.o(i.IMU_UpdateFuzzyInput) refers to dleqf.o(x$fpl$dleqf) for __aeabi_cdcmple
    functions.o(i.IMU_UpdateFuzzyInput) refers to daddsub_clz.o(x$fpl$dadd) for __aeabi_dadd
    functions.o(i.IMU_UpdateFuzzyInput) refers to dmul.o(x$fpl$dmul) for __aeabi_dmul
    functions.o(i.IMU_UpdateSetAngle) refers to daddsub_clz.o(x$fpl$dadd) for __aeabi_dadd
    functions.o(i.IMU_UpdateSetAngle) refers to functions.o(i.Degree_To_Degree) for Degree_To_Degree
    functions.o(i.IsCorrectMessage) refers to functions.o(i.LRCCalculate) for LRCCalculate
    functions.o(i.IsCorrectMessage) refers to functions.o(i.ToHex) for ToHex
    functions.o(i.IsDataTransferCompleted) refers to stm32f4xx_dma.o(i.DMA_GetFlagStatus) for DMA_GetFlagStatus
    functions.o(i.IsDouble) refers to dfixu.o(x$fpl$dfixu) for __aeabi_d2uiz
    functions.o(i.IsDouble) refers to dflt_clz.o(x$fpl$dfltu) for __aeabi_ui2d
    functions.o(i.IsDouble) refers to daddsub_clz.o(x$fpl$drsb) for __aeabi_drsub
    functions.o(i.IsDouble) refers to deqf.o(x$fpl$deqf) for __aeabi_cdcmpeq
    functions.o(i.LedTest) refers to stm32f4xx_rcc.o(i.RCC_AHB1PeriphClockCmd) for RCC_AHB1PeriphClockCmd
    functions.o(i.LedTest) refers to stm32f4xx_gpio.o(i.GPIO_Init) for GPIO_Init
    functions.o(i.LedTest) refers to functions.o(.data) for .data
    functions.o(i.PID_Compute) refers to dmul.o(x$fpl$dmul) for __aeabi_dmul
    functions.o(i.PID_Compute) refers to daddsub_clz.o(x$fpl$dsub) for __aeabi_dsub
    functions.o(i.PID_Compute) refers to daddsub_clz.o(x$fpl$dadd) for __aeabi_dadd
    functions.o(i.PID_Compute) refers to ddiv.o(x$fpl$ddiv) for __aeabi_ddiv
    functions.o(i.PID_Compute) refers to dleqf.o(x$fpl$dleqf) for __aeabi_cdcmple
    functions.o(i.PID_Compute) refers to drleqf.o(x$fpl$drleqf) for __aeabi_cdrcmple
    functions.o(i.PID_Compute) refers to functions.o(.bss) for .bss
    functions.o(i.PID_SavePIDParaToFlash) refers to functions.o(i.ToChar) for ToChar
    functions.o(i.PID_SavePIDParaToFlash) refers to functions.o(i.EraseMemory) for EraseMemory
    functions.o(i.PID_SavePIDParaToFlash) refers to functions.o(i.WriteToFlash) for WriteToFlash
    functions.o(i.PID_SavePIDParaToFlash) refers to functions.o(.bss) for .bss
    functions.o(i.Pi_To_Pi) refers to drleqf.o(x$fpl$drleqf) for __aeabi_cdrcmple
    functions.o(i.Pi_To_Pi) refers to daddsub_clz.o(x$fpl$dsub) for __aeabi_dsub
    functions.o(i.Pi_To_Pi) refers to dleqf.o(x$fpl$dleqf) for __aeabi_cdcmple
    functions.o(i.Pi_To_Pi) refers to daddsub_clz.o(x$fpl$dadd) for __aeabi_dadd
    functions.o(i.SelectFuzzyOutput) refers to functions.o(i.ToRPM) for ToRPM
    functions.o(i.SelectFuzzyOutput) refers to drleqf.o(x$fpl$drleqf) for __aeabi_cdrcmple
    functions.o(i.SelectFuzzyOutput) refers to functions.o(.bss) for .bss
    functions.o(i.SelectFuzzyOutput) refers to functions.o(.data) for .data
    functions.o(i.Time_GetSampleTime) refers to pow.o(i.__hardfp_pow) for __hardfp_pow
    functions.o(i.Time_GetSampleTime) refers to dflt_clz.o(x$fpl$dfltu) for __aeabi_ui2d
    functions.o(i.Time_GetSampleTime) refers to dmul.o(x$fpl$dmul) for __aeabi_dmul
    functions.o(i.ToChar) refers to dleqf.o(x$fpl$dleqf) for __aeabi_cdcmple
    functions.o(i.ToChar) refers to basic.o(x$fpl$basic) for __aeabi_dneg
    functions.o(i.ToChar) refers to dfixu.o(x$fpl$dfixu) for __aeabi_d2uiz
    functions.o(i.ToChar) refers to dflt_clz.o(x$fpl$dfltu) for __aeabi_ui2d
    functions.o(i.ToChar) refers to daddsub_clz.o(x$fpl$drsb) for __aeabi_drsub
    functions.o(i.ToChar) refers to functions.o(i.IsDouble) for IsDouble
    functions.o(i.ToChar) refers to dmul.o(x$fpl$dmul) for __aeabi_dmul
    functions.o(i.ToDegree) refers to dmul.o(x$fpl$dmul) for __aeabi_dmul
    functions.o(i.ToDegree) refers to ddiv.o(x$fpl$ddiv) for __aeabi_ddiv
    functions.o(i.ToRPM) refers to ddiv.o(x$fpl$ddiv) for __aeabi_ddiv
    functions.o(i.ToRPM) refers to dmul.o(x$fpl$dmul) for __aeabi_dmul
    functions.o(i.ToRadian) refers to dmul.o(x$fpl$dmul) for __aeabi_dmul
    functions.o(i.ToRadian) refers to ddiv.o(x$fpl$ddiv) for __aeabi_ddiv
    functions.o(i.Trapf) refers to dleqf.o(x$fpl$dleqf) for __aeabi_cdcmple
    functions.o(i.Trapf) refers to daddsub_clz.o(x$fpl$dsub) for __aeabi_dsub
    functions.o(i.Trapf) refers to ddiv.o(x$fpl$ddiv) for __aeabi_ddiv
    functions.o(i.Trimf) refers to dleqf.o(x$fpl$dleqf) for __aeabi_cdcmple
    functions.o(i.Trimf) refers to daddsub_clz.o(x$fpl$dsub) for __aeabi_dsub
    functions.o(i.Trimf) refers to ddiv.o(x$fpl$ddiv) for __aeabi_ddiv
    functions.o(i.Veh_CheckStateChange) refers to functions.o(i.PID_ResetPID) for PID_ResetPID
    functions.o(i.Veh_GetCommandMessage) refers to functions.o(i.LengthOfLine) for LengthOfLine
    functions.o(i.Veh_GetCommandMessage) refers to functions.o(i.GetMessageInfo) for GetMessageInfo
    functions.o(i.Veh_GetCommandMessage) refers to functions.o(i.IsCorrectMessage) for IsCorrectMessage
    functions.o(i.Veh_ParametersInit) refers to functions.o(i.ToRPM) for ToRPM
    functions.o(i.Veh_UpdateVehicleFromKey) refers to dmul.o(x$fpl$dmul) for __aeabi_dmul
    functions.o(i.Veh_UpdateVehicleFromKey) refers to daddsub_clz.o(x$fpl$dadd) for __aeabi_dadd
    functions.o(i.Veh_UpdateVehicleFromKey) refers to daddsub_clz.o(x$fpl$drsb) for __aeabi_drsub
    functions.o(i.Veh_UpdateVehicleFromKey) refers to drleqf.o(x$fpl$drleqf) for __aeabi_cdrcmple
    functions.o(i.Veh_UpdateVehicleFromKey) refers to daddsub_clz.o(x$fpl$dsub) for __aeabi_dsub
    functions.o(i.Veh_UpdateVehicleFromKey) refers to dleqf.o(x$fpl$dleqf) for __aeabi_cdcmple
    functions.o(i.Veh_UpdateVehicleFromKey) refers to functions.o(i.IMU_UpdateSetAngle) for IMU_UpdateSetAngle
    functions.o(i.Veh_UpdateVehicleFromKey) refers to functions.o(.bss) for .bss
    functions.o(i.WriteToFlash) refers to functions.o(i.Convert4BytesToWordData) for Convert4BytesToWordData
    functions.o(i.WriteToFlash) refers to stm32f4xx_flash.o(i.FLASH_Unlock) for FLASH_Unlock
    functions.o(i.WriteToFlash) refers to stm32f4xx_flash.o(i.FLASH_ProgramWord) for FLASH_ProgramWord
    functions.o(i.WriteToFlash) refers to stm32f4xx_flash.o(i.FLASH_Lock) for FLASH_Lock
    functions.o(i.fix) refers to dfix.o(x$fpl$dfix) for __aeabi_d2iz
    functions.o(i.fix) refers to dflt_clz.o(x$fpl$dflt) for __aeabi_i2d
    e_compass.o(i.Acc_Calibration) refers to daddsub_clz.o(x$fpl$dsub) for __aeabi_dsub
    e_compass.o(i.CalculateDirection) refers to drleqf.o(x$fpl$drleqf) for __aeabi_cdrcmple
    e_compass.o(i.CalculateDirection) refers to dleqf.o(x$fpl$dleqf) for __aeabi_cdcmple
    e_compass.o(i.ECompass_Config) refers to e_compass.o(i.I2C_ECompass_Config) for I2C_ECompass_Config
    e_compass.o(i.ECompass_Config) refers to e_compass.o(i.WriteToSensor) for WriteToSensor
    e_compass.o(i.GetAngle) refers to e_compass.o(i.Read3AxisMagnetometer) for Read3AxisMagnetometer
    e_compass.o(i.GetAngle) refers to deqf.o(x$fpl$deqf) for __aeabi_cdcmpeq
    e_compass.o(i.GetAngle) refers to ddiv.o(x$fpl$ddiv) for __aeabi_ddiv
    e_compass.o(i.GetAngle) refers to atan.o(i.__hardfp_atan) for __hardfp_atan
    e_compass.o(i.GetAngle) refers to dmul.o(x$fpl$dmul) for __aeabi_dmul
    e_compass.o(i.GetAngle) refers to drleqf.o(x$fpl$drleqf) for __aeabi_cdrcmple
    e_compass.o(i.GetAngle) refers to daddsub_clz.o(x$fpl$dsub) for __aeabi_dsub
    e_compass.o(i.GetAngle) refers to dleqf.o(x$fpl$dleqf) for __aeabi_cdcmple
    e_compass.o(i.GetAngle) refers to daddsub_clz.o(x$fpl$dadd) for __aeabi_dadd
    e_compass.o(i.GetAngle_LSM303DLHC) refers to e_compass.o(i.Read3AxisAccelerometer) for Read3AxisAccelerometer
    e_compass.o(i.GetAngle_LSM303DLHC) refers to e_compass.o(i.Read3AxisMagnetometer) for Read3AxisMagnetometer
    e_compass.o(i.GetAngle_LSM303DLHC) refers to atan2.o(i.__hardfp_atan2) for __hardfp_atan2
    e_compass.o(i.GetAngle_LSM303DLHC) refers to cos.o(i.__hardfp_cos) for __hardfp_cos
    e_compass.o(i.GetAngle_LSM303DLHC) refers to dmul.o(x$fpl$dmul) for __aeabi_dmul
    e_compass.o(i.GetAngle_LSM303DLHC) refers to sin.o(i.__hardfp_sin) for __hardfp_sin
    e_compass.o(i.GetAngle_LSM303DLHC) refers to daddsub_clz.o(x$fpl$dadd) for __aeabi_dadd
    e_compass.o(i.GetAngle_LSM303DLHC) refers to basic.o(x$fpl$basic) for __aeabi_dneg
    e_compass.o(i.GetAngle_LSM303DLHC) refers to ddiv.o(x$fpl$ddiv) for __aeabi_ddiv
    e_compass.o(i.GetAngle_LSM303DLHC) refers to atan.o(i.__hardfp_atan) for __hardfp_atan
    e_compass.o(i.GetAngle_LSM303DLHC) refers to daddsub_clz.o(x$fpl$dsub) for __aeabi_dsub
    e_compass.o(i.I2C_ECompass_Config) refers to stm32f4xx_rcc.o(i.RCC_APB1PeriphClockCmd) for RCC_APB1PeriphClockCmd
    e_compass.o(i.I2C_ECompass_Config) refers to stm32f4xx_rcc.o(i.RCC_AHB1PeriphClockCmd) for RCC_AHB1PeriphClockCmd
    e_compass.o(i.I2C_ECompass_Config) refers to stm32f4xx_gpio.o(i.GPIO_Init) for GPIO_Init
    e_compass.o(i.I2C_ECompass_Config) refers to stm32f4xx_gpio.o(i.GPIO_PinAFConfig) for GPIO_PinAFConfig
    e_compass.o(i.I2C_ECompass_Config) refers to stm32f4xx_i2c.o(i.I2C_Init) for I2C_Init
    e_compass.o(i.I2C_ECompass_Config) refers to stm32f4xx_i2c.o(i.I2C_Cmd) for I2C_Cmd
    e_compass.o(i.I2C_ECompass_Config) refers to e_compass.o(.data) for .data
    e_compass.o(i.I2C_ECompass_Config) refers to e_compass.o(.bss) for .bss
    e_compass.o(i.I2C_Start_Receive) refers to stm32f4xx_i2c.o(i.I2C_GenerateSTART) for I2C_GenerateSTART
    e_compass.o(i.I2C_Start_Receive) refers to stm32f4xx_i2c.o(i.I2C_CheckEvent) for I2C_CheckEvent
    e_compass.o(i.I2C_Start_Receive) refers to stm32f4xx_i2c.o(i.I2C_Send7bitAddress) for I2C_Send7bitAddress
    e_compass.o(i.I2C_Start_Transmit) refers to stm32f4xx_i2c.o(i.I2C_GenerateSTART) for I2C_GenerateSTART
    e_compass.o(i.I2C_Start_Transmit) refers to stm32f4xx_i2c.o(i.I2C_CheckEvent) for I2C_CheckEvent
    e_compass.o(i.I2C_Start_Transmit) refers to stm32f4xx_i2c.o(i.I2C_Send7bitAddress) for I2C_Send7bitAddress
    e_compass.o(i.Read3AxisAccelerometer) refers to stm32f4xx_i2c.o(i.I2C_GetFlagStatus) for I2C_GetFlagStatus
    e_compass.o(i.Read3AxisAccelerometer) refers to e_compass.o(i.I2C_Start_Transmit) for I2C_Start_Transmit
    e_compass.o(i.Read3AxisAccelerometer) refers to stm32f4xx_i2c.o(i.I2C_SendData) for I2C_SendData
    e_compass.o(i.Read3AxisAccelerometer) refers to stm32f4xx_i2c.o(i.I2C_CheckEvent) for I2C_CheckEvent
    e_compass.o(i.Read3AxisAccelerometer) refers to e_compass.o(i.I2C_Start_Receive) for I2C_Start_Receive
    e_compass.o(i.Read3AxisAccelerometer) refers to stm32f4xx_i2c.o(i.I2C_AcknowledgeConfig) for I2C_AcknowledgeConfig
    e_compass.o(i.Read3AxisAccelerometer) refers to stm32f4xx_i2c.o(i.I2C_ReceiveData) for I2C_ReceiveData
    e_compass.o(i.Read3AxisAccelerometer) refers to stm32f4xx_i2c.o(i.I2C_GenerateSTOP) for I2C_GenerateSTOP
    e_compass.o(i.Read3AxisAccelerometer) refers to f2d.o(x$fpl$f2d) for __aeabi_f2d
    e_compass.o(i.Read3AxisMagnetometer) refers to stm32f4xx_i2c.o(i.I2C_GetFlagStatus) for I2C_GetFlagStatus
    e_compass.o(i.Read3AxisMagnetometer) refers to e_compass.o(i.I2C_Start_Transmit) for I2C_Start_Transmit
    e_compass.o(i.Read3AxisMagnetometer) refers to stm32f4xx_i2c.o(i.I2C_SendData) for I2C_SendData
    e_compass.o(i.Read3AxisMagnetometer) refers to stm32f4xx_i2c.o(i.I2C_CheckEvent) for I2C_CheckEvent
    e_compass.o(i.Read3AxisMagnetometer) refers to e_compass.o(i.I2C_Start_Receive) for I2C_Start_Receive
    e_compass.o(i.Read3AxisMagnetometer) refers to stm32f4xx_i2c.o(i.I2C_AcknowledgeConfig) for I2C_AcknowledgeConfig
    e_compass.o(i.Read3AxisMagnetometer) refers to stm32f4xx_i2c.o(i.I2C_ReceiveData) for I2C_ReceiveData
    e_compass.o(i.Read3AxisMagnetometer) refers to stm32f4xx_i2c.o(i.I2C_GenerateSTOP) for I2C_GenerateSTOP
    e_compass.o(i.Read3AxisMagnetometer) refers to dflt_clz.o(x$fpl$dflt) for __aeabi_i2d
    e_compass.o(i.Read3AxisMagnetometer) refers to ddiv.o(x$fpl$ddiv) for __aeabi_ddiv
    e_compass.o(i.ReadFromSensor) refers to stm32f4xx_i2c.o(i.I2C_GetFlagStatus) for I2C_GetFlagStatus
    e_compass.o(i.ReadFromSensor) refers to e_compass.o(i.I2C_Start_Transmit) for I2C_Start_Transmit
    e_compass.o(i.ReadFromSensor) refers to stm32f4xx_i2c.o(i.I2C_SendData) for I2C_SendData
    e_compass.o(i.ReadFromSensor) refers to stm32f4xx_i2c.o(i.I2C_CheckEvent) for I2C_CheckEvent
    e_compass.o(i.ReadFromSensor) refers to e_compass.o(i.I2C_Start_Receive) for I2C_Start_Receive
    e_compass.o(i.ReadFromSensor) refers to stm32f4xx_i2c.o(i.I2C_AcknowledgeConfig) for I2C_AcknowledgeConfig
    e_compass.o(i.ReadFromSensor) refers to stm32f4xx_i2c.o(i.I2C_ReceiveData) for I2C_ReceiveData
    e_compass.o(i.ScaleAngle) refers to drleqf.o(x$fpl$drleqf) for __aeabi_cdrcmple
    e_compass.o(i.ScaleAngle) refers to daddsub_clz.o(x$fpl$dsub) for __aeabi_dsub
    e_compass.o(i.WriteToSensor) refers to stm32f4xx_i2c.o(i.I2C_GetFlagStatus) for I2C_GetFlagStatus
    e_compass.o(i.WriteToSensor) refers to e_compass.o(i.I2C_Start_Transmit) for I2C_Start_Transmit
    e_compass.o(i.WriteToSensor) refers to stm32f4xx_i2c.o(i.I2C_SendData) for I2C_SendData
    e_compass.o(i.WriteToSensor) refers to stm32f4xx_i2c.o(i.I2C_CheckEvent) for I2C_CheckEvent
    e_compass.o(i.WriteToSensor) refers to stm32f4xx_i2c.o(i.I2C_GenerateSTOP) for I2C_GenerateSTOP
    srf05.o(i.Srf05_Initial) refers to stm32f411_rccenable.o(i.RCC_GPIOxClockCmd) for RCC_GPIOxClockCmd
    srf05.o(i.Srf05_Initial) refers to stm32f4xx_gpio.o(i.GPIO_Init) for GPIO_Init
    srf05.o(i.Srf05_Initial) refers to stm32f411_rccenable.o(i.GetAFFromTIM) for GetAFFromTIM
    srf05.o(i.Srf05_Initial) refers to stm32f411_rccenable.o(i.GetPinSourceFromGPIOPin) for GetPinSourceFromGPIOPin
    srf05.o(i.Srf05_Initial) refers to stm32f4xx_gpio.o(i.GPIO_PinAFConfig) for GPIO_PinAFConfig
    srf05.o(i.Srf05_Initial) refers to stm32f411_rccenable.o(i.RCC_TIMxClockCmd) for RCC_TIMxClockCmd
    srf05.o(i.Srf05_Initial) refers to stm32f4xx_tim.o(i.TIM_TimeBaseInit) for TIM_TimeBaseInit
    srf05.o(i.Srf05_Initial) refers to stm32f4xx_tim.o(i.TIM_ICInit) for TIM_ICInit
    srf05.o(i.Srf05_Initial) refers to stm32f411_rccenable.o(i.GetIRQHandlerFromTIMxCC) for GetIRQHandlerFromTIMxCC
    srf05.o(i.Srf05_Initial) refers to misc.o(i.NVIC_Init) for NVIC_Init
    srf05.o(i.Srf05_Initial) refers to stm32f4xx_tim.o(i.TIM_ITConfig) for TIM_ITConfig
    srf05.o(i.Srf05_Initial) refers to stm32f4xx_tim.o(i.TIM_Cmd) for TIM_Cmd
    srf05.o(i.Srf05_Initial) refers to srf05.o(.data) for .data
    srf05.o(i.Srf05_Initial) refers to srf05.o(.bss) for .bss
    srf05.o(i.Srf05_ResetCounter) refers to stm32f4xx_tim.o(i.TIM_SetCounter) for TIM_SetCounter
    stm32f411_rccenable.o(i.RCC_DMAxClockCmd) refers to stm32f4xx_rcc.o(i.RCC_AHB1PeriphClockCmd) for RCC_AHB1PeriphClockCmd
    stm32f411_rccenable.o(i.RCC_GPIOxClockCmd) refers to stm32f4xx_rcc.o(i.RCC_AHB1PeriphClockCmd) for RCC_AHB1PeriphClockCmd
    stm32f411_rccenable.o(i.RCC_I2CxClockCmd) refers to stm32f4xx_rcc.o(i.RCC_APB1PeriphClockCmd) for RCC_APB1PeriphClockCmd
    stm32f411_rccenable.o(i.RCC_TIMxClockCmd) refers to stm32f4xx_rcc.o(i.RCC_APB2PeriphClockCmd) for RCC_APB2PeriphClockCmd
    stm32f411_rccenable.o(i.RCC_TIMxClockCmd) refers to stm32f4xx_rcc.o(i.RCC_APB1PeriphClockCmd) for RCC_APB1PeriphClockCmd
    stm32f411_rccenable.o(i.RCC_USARTxClockCmd) refers to stm32f4xx_rcc.o(i.RCC_APB1PeriphClockCmd) for RCC_APB1PeriphClockCmd
    stm32f411_rccenable.o(i.RCC_USARTxClockCmd) refers to stm32f4xx_rcc.o(i.RCC_APB2PeriphClockCmd) for RCC_APB2PeriphClockCmd
    twowheelrobot.o(i.SelfPositionUpdateParams) refers to dmul.o(x$fpl$dmul) for __aeabi_dmul
    twowheelrobot.o(i.SelfPositionUpdateParams) refers to daddsub_clz.o(x$fpl$dadd) for __aeabi_dadd
    twowheelrobot.o(i.SelfPositionUpdateParams) refers to cos.o(i.__hardfp_cos) for __hardfp_cos
    twowheelrobot.o(i.SelfPositionUpdateParams) refers to sin.o(i.__hardfp_sin) for __hardfp_sin
    startup_stm32f411xe.o(STACK) refers (Special) to heapauxi.o(.text) for __use_two_region_memory
    startup_stm32f411xe.o(HEAP) refers (Special) to heapauxi.o(.text) for __use_two_region_memory
    startup_stm32f411xe.o(RESET) refers (Special) to heapauxi.o(.text) for __use_two_region_memory
    startup_stm32f411xe.o(RESET) refers to startup_stm32f411xe.o(STACK) for __initial_sp
    startup_stm32f411xe.o(RESET) refers to startup_stm32f411xe.o(.text) for Reset_Handler
    startup_stm32f411xe.o(RESET) refers to stm32f4xx_it.o(i.NMI_Handler) for NMI_Handler
    startup_stm32f411xe.o(RESET) refers to stm32f4xx_it.o(i.HardFault_Handler) for HardFault_Handler
    startup_stm32f411xe.o(RESET) refers to stm32f4xx_it.o(i.MemManage_Handler) for MemManage_Handler
    startup_stm32f411xe.o(RESET) refers to stm32f4xx_it.o(i.BusFault_Handler) for BusFault_Handler
    startup_stm32f411xe.o(RESET) refers to stm32f4xx_it.o(i.UsageFault_Handler) for UsageFault_Handler
    startup_stm32f411xe.o(RESET) refers to stm32f4xx_it.o(i.SVC_Handler) for SVC_Handler
    startup_stm32f411xe.o(RESET) refers to stm32f4xx_it.o(i.DebugMon_Handler) for DebugMon_Handler
    startup_stm32f411xe.o(RESET) refers to stm32f4xx_it.o(i.PendSV_Handler) for PendSV_Handler
    startup_stm32f411xe.o(RESET) refers to stm32f4xx_it.o(i.SysTick_Handler) for SysTick_Handler
    startup_stm32f411xe.o(RESET) refers to stm32f4xx_it.o(i.DMA1_Stream5_IRQHandler) for DMA1_Stream5_IRQHandler
    startup_stm32f411xe.o(RESET) refers to stm32f4xx_it.o(i.TIM2_IRQHandler) for TIM2_IRQHandler
    startup_stm32f411xe.o(RESET) refers to stm32f4xx_it.o(i.TIM3_IRQHandler) for TIM3_IRQHandler
    startup_stm32f411xe.o(RESET) refers to stm32f4xx_it.o(i.TIM4_IRQHandler) for TIM4_IRQHandler
    startup_stm32f411xe.o(RESET) refers to stm32f4xx_it.o(i.USART1_IRQHandler) for USART1_IRQHandler
    startup_stm32f411xe.o(RESET) refers to stm32f4xx_it.o(i.USART2_IRQHandler) for USART2_IRQHandler
    startup_stm32f411xe.o(RESET) refers to main.o(i.TIM5_IRQHandler) for TIM5_IRQHandler
    startup_stm32f411xe.o(RESET) refers to stm32f4xx_it.o(i.DMA2_Stream2_IRQHandler) for DMA2_Stream2_IRQHandler
    startup_stm32f411xe.o(RESET) refers to stm32f4xx_it.o(i.DMA2_Stream5_IRQHandler) for DMA2_Stream5_IRQHandler
    startup_stm32f411xe.o(RESET) refers to stm32f4xx_it.o(i.USART6_IRQHandler) for USART6_IRQHandler
    startup_stm32f411xe.o(.text) refers (Special) to heapauxi.o(.text) for __use_two_region_memory
    startup_stm32f411xe.o(.text) refers to system_stm32f4xx.o(i.SystemInit) for SystemInit
    startup_stm32f411xe.o(.text) refers to __main.o(!!!main) for __main
    startup_stm32f411xe.o(.text) refers to startup_stm32f411xe.o(HEAP) for Heap_Mem
    startup_stm32f411xe.o(.text) refers to startup_stm32f411xe.o(STACK) for Stack_Mem
    stm32f4xx_usart.o(i.USART_DeInit) refers to stm32f4xx_rcc.o(i.RCC_APB2PeriphResetCmd) for RCC_APB2PeriphResetCmd
    stm32f4xx_usart.o(i.USART_DeInit) refers to stm32f4xx_rcc.o(i.RCC_APB1PeriphResetCmd) for RCC_APB1PeriphResetCmd
    stm32f4xx_usart.o(i.USART_Init) refers to stm32f4xx_rcc.o(i.RCC_GetClocksFreq) for RCC_GetClocksFreq
    stm32f4xx_gpio.o(i.GPIO_DeInit) refers to stm32f4xx_rcc.o(i.RCC_AHB1PeriphResetCmd) for RCC_AHB1PeriphResetCmd
    stm32f4xx_i2c.o(i.I2C_DeInit) refers to stm32f4xx_rcc.o(i.RCC_APB1PeriphResetCmd) for RCC_APB1PeriphResetCmd
    stm32f4xx_i2c.o(i.I2C_Init) refers to stm32f4xx_rcc.o(i.RCC_GetClocksFreq) for RCC_GetClocksFreq
    stm32f4xx_rcc.o(i.RCC_GetClocksFreq) refers to stm32f4xx_rcc.o(.data) for .data
    stm32f4xx_rcc.o(i.RCC_WaitForHSEStartUp) refers to stm32f4xx_rcc.o(i.RCC_GetFlagStatus) for RCC_GetFlagStatus
    stm32f4xx_tim.o(i.TIM_DeInit) refers to stm32f4xx_rcc.o(i.RCC_APB2PeriphResetCmd) for RCC_APB2PeriphResetCmd
    stm32f4xx_tim.o(i.TIM_DeInit) refers to stm32f4xx_rcc.o(i.RCC_APB1PeriphResetCmd) for RCC_APB1PeriphResetCmd
    stm32f4xx_tim.o(i.TIM_ETRClockMode1Config) refers to stm32f4xx_tim.o(i.TIM_ETRConfig) for TIM_ETRConfig
    stm32f4xx_tim.o(i.TIM_ETRClockMode2Config) refers to stm32f4xx_tim.o(i.TIM_ETRConfig) for TIM_ETRConfig
    stm32f4xx_tim.o(i.TIM_ICInit) refers to stm32f4xx_tim.o(i.TIM_SetIC4Prescaler) for TIM_SetIC4Prescaler
    stm32f4xx_tim.o(i.TIM_ICInit) refers to stm32f4xx_tim.o(i.TI1_Config) for TI1_Config
    stm32f4xx_tim.o(i.TIM_ICInit) refers to stm32f4xx_tim.o(i.TIM_SetIC1Prescaler) for TIM_SetIC1Prescaler
    stm32f4xx_tim.o(i.TIM_ICInit) refers to stm32f4xx_tim.o(i.TI2_Config) for TI2_Config
    stm32f4xx_tim.o(i.TIM_ICInit) refers to stm32f4xx_tim.o(i.TIM_SetIC2Prescaler) for TIM_SetIC2Prescaler
    stm32f4xx_tim.o(i.TIM_ICInit) refers to stm32f4xx_tim.o(i.TIM_SetIC3Prescaler) for TIM_SetIC3Prescaler
    stm32f4xx_tim.o(i.TIM_ITRxExternalClockConfig) refers to stm32f4xx_tim.o(i.TIM_SelectInputTrigger) for TIM_SelectInputTrigger
    stm32f4xx_tim.o(i.TIM_PWMIConfig) refers to stm32f4xx_tim.o(i.TI2_Config) for TI2_Config
    stm32f4xx_tim.o(i.TIM_PWMIConfig) refers to stm32f4xx_tim.o(i.TIM_SetIC2Prescaler) for TIM_SetIC2Prescaler
    stm32f4xx_tim.o(i.TIM_PWMIConfig) refers to stm32f4xx_tim.o(i.TI1_Config) for TI1_Config
    stm32f4xx_tim.o(i.TIM_PWMIConfig) refers to stm32f4xx_tim.o(i.TIM_SetIC1Prescaler) for TIM_SetIC1Prescaler
    stm32f4xx_tim.o(i.TIM_TIxExternalClockConfig) refers to stm32f4xx_tim.o(i.TI1_Config) for TI1_Config
    stm32f4xx_tim.o(i.TIM_TIxExternalClockConfig) refers to stm32f4xx_tim.o(i.TIM_SelectInputTrigger) for TIM_SelectInputTrigger
    stm32f4xx_tim.o(i.TIM_TIxExternalClockConfig) refers to stm32f4xx_tim.o(i.TI2_Config) for TI2_Config
    stm32f4xx_flash.o(i.FLASH_EraseAllBank1Sectors) refers to stm32f4xx_flash.o(i.FLASH_WaitForLastOperation) for FLASH_WaitForLastOperation
    stm32f4xx_flash.o(i.FLASH_EraseAllBank2Sectors) refers to stm32f4xx_flash.o(i.FLASH_WaitForLastOperation) for FLASH_WaitForLastOperation
    stm32f4xx_flash.o(i.FLASH_EraseAllSectors) refers to stm32f4xx_flash.o(i.FLASH_WaitForLastOperation) for FLASH_WaitForLastOperation
    stm32f4xx_flash.o(i.FLASH_EraseSector) refers to stm32f4xx_flash.o(i.FLASH_WaitForLastOperation) for FLASH_WaitForLastOperation
    stm32f4xx_flash.o(i.FLASH_OB_Launch) refers to stm32f4xx_flash.o(i.FLASH_WaitForLastOperation) for FLASH_WaitForLastOperation
    stm32f4xx_flash.o(i.FLASH_OB_PCROP1Config) refers to stm32f4xx_flash.o(i.FLASH_WaitForLastOperation) for FLASH_WaitForLastOperation
    stm32f4xx_flash.o(i.FLASH_OB_PCROPConfig) refers to stm32f4xx_flash.o(i.FLASH_WaitForLastOperation) for FLASH_WaitForLastOperation
    stm32f4xx_flash.o(i.FLASH_OB_RDPConfig) refers to stm32f4xx_flash.o(i.FLASH_WaitForLastOperation) for FLASH_WaitForLastOperation
    stm32f4xx_flash.o(i.FLASH_OB_UserConfig) refers to stm32f4xx_flash.o(i.FLASH_WaitForLastOperation) for FLASH_WaitForLastOperation
    stm32f4xx_flash.o(i.FLASH_OB_WRP1Config) refers to stm32f4xx_flash.o(i.FLASH_WaitForLastOperation) for FLASH_WaitForLastOperation
    stm32f4xx_flash.o(i.FLASH_OB_WRPConfig) refers to stm32f4xx_flash.o(i.FLASH_WaitForLastOperation) for FLASH_WaitForLastOperation
    stm32f4xx_flash.o(i.FLASH_ProgramByte) refers to stm32f4xx_flash.o(i.FLASH_WaitForLastOperation) for FLASH_WaitForLastOperation
    stm32f4xx_flash.o(i.FLASH_ProgramDoubleWord) refers to stm32f4xx_flash.o(i.FLASH_WaitForLastOperation) for FLASH_WaitForLastOperation
    stm32f4xx_flash.o(i.FLASH_ProgramHalfWord) refers to stm32f4xx_flash.o(i.FLASH_WaitForLastOperation) for FLASH_WaitForLastOperation
    stm32f4xx_flash.o(i.FLASH_ProgramWord) refers to stm32f4xx_flash.o(i.FLASH_WaitForLastOperation) for FLASH_WaitForLastOperation
    stm32f4xx_flash.o(i.FLASH_WaitForLastOperation) refers to stm32f4xx_flash.o(i.FLASH_GetStatus) for FLASH_GetStatus
    __main.o(!!!main) refers to rtentry.o(.ARM.Collect$$rtentry$$00000000) for __rt_entry
    basic.o(x$fpl$basic) refers (Special) to usenofp.o(x$fpl$usenofp) for __I$use$fp
    d2f.o(x$fpl$d2f) refers (Special) to usenofp.o(x$fpl$usenofp) for __I$use$fp
    d2f.o(x$fpl$d2f) refers to fretinf.o(x$fpl$fretinf) for __fpl_fretinf
    d2f.o(x$fpl$d2f) refers to dnaninf.o(x$fpl$dnaninf) for __fpl_dnaninf
    daddsub_clz.o(x$fpl$dadd) refers (Special) to usenofp.o(x$fpl$usenofp) for __I$use$fp
    daddsub_clz.o(x$fpl$dadd) refers to daddsub_clz.o(x$fpl$dsub) for _dsub1
    daddsub_clz.o(x$fpl$dadd) refers to dretinf.o(x$fpl$dretinf) for __fpl_dretinf
    daddsub_clz.o(x$fpl$dadd) refers to dnaninf.o(x$fpl$dnaninf) for __fpl_dnaninf
    daddsub_clz.o(x$fpl$drsb) refers (Special) to usenofp.o(x$fpl$usenofp) for __I$use$fp
    daddsub_clz.o(x$fpl$drsb) refers to daddsub_clz.o(x$fpl$dadd) for _dadd1
    daddsub_clz.o(x$fpl$drsb) refers to daddsub_clz.o(x$fpl$dsub) for _dsub1
    daddsub_clz.o(x$fpl$dsub) refers (Special) to usenofp.o(x$fpl$usenofp) for __I$use$fp
    daddsub_clz.o(x$fpl$dsub) refers to daddsub_clz.o(x$fpl$dadd) for _dadd1
    daddsub_clz.o(x$fpl$dsub) refers to dnaninf.o(x$fpl$dnaninf) for __fpl_dnaninf
    ddiv.o(x$fpl$drdiv) refers (Special) to usenofp.o(x$fpl$usenofp) for __I$use$fp
    ddiv.o(x$fpl$drdiv) refers to ddiv.o(x$fpl$ddiv) for ddiv_entry
    ddiv.o(x$fpl$ddiv) refers (Special) to usenofp.o(x$fpl$usenofp) for __I$use$fp
    ddiv.o(x$fpl$ddiv) refers to dretinf.o(x$fpl$dretinf) for __fpl_dretinf
    ddiv.o(x$fpl$ddiv) refers to dnaninf.o(x$fpl$dnaninf) for __fpl_dnaninf
    deqf.o(x$fpl$deqf) refers (Special) to usenofp.o(x$fpl$usenofp) for __I$use$fp
    deqf.o(x$fpl$deqf) refers to dnaninf.o(x$fpl$dnaninf) for __fpl_dnaninf
    deqf.o(x$fpl$deqf) refers to dcmpi.o(x$fpl$dcmpinf) for __fpl_dcmp_Inf
    dfix.o(x$fpl$dfix) refers (Special) to usenofp.o(x$fpl$usenofp) for __I$use$fp
    dfix.o(x$fpl$dfix) refers to dnaninf.o(x$fpl$dnaninf) for __fpl_dnaninf
    dfix.o(x$fpl$dfixr) refers (Special) to usenofp.o(x$fpl$usenofp) for __I$use$fp
    dfix.o(x$fpl$dfixr) refers to dnaninf.o(x$fpl$dnaninf) for __fpl_dnaninf
    dfixu.o(x$fpl$dfixu) refers (Special) to usenofp.o(x$fpl$usenofp) for __I$use$fp
    dfixu.o(x$fpl$dfixu) refers to dnaninf.o(x$fpl$dnaninf) for __fpl_dnaninf
    dfixu.o(x$fpl$dfixur) refers (Special) to usenofp.o(x$fpl$usenofp) for __I$use$fp
    dfixu.o(x$fpl$dfixur) refers to dnaninf.o(x$fpl$dnaninf) for __fpl_dnaninf
    dflt_clz.o(x$fpl$dfltu) refers (Special) to usenofp.o(x$fpl$usenofp) for __I$use$fp
    dflt_clz.o(x$fpl$dflt) refers (Special) to usenofp.o(x$fpl$usenofp) for __I$use$fp
    dflt_clz.o(x$fpl$dfltn) refers (Special) to usenofp.o(x$fpl$usenofp) for __I$use$fp
    dleqf.o(x$fpl$dleqf) refers (Special) to usenofp.o(x$fpl$usenofp) for __I$use$fp
    dleqf.o(x$fpl$dleqf) refers to dnaninf.o(x$fpl$dnaninf) for __fpl_dnaninf
    dleqf.o(x$fpl$dleqf) refers to dcmpi.o(x$fpl$dcmpinf) for __fpl_dcmp_Inf
    dmul.o(x$fpl$dmul) refers (Special) to usenofp.o(x$fpl$usenofp) for __I$use$fp
    dmul.o(x$fpl$dmul) refers to dretinf.o(x$fpl$dretinf) for __fpl_dretinf
    dmul.o(x$fpl$dmul) refers to dnaninf.o(x$fpl$dnaninf) for __fpl_dnaninf
    drleqf.o(x$fpl$drleqf) refers (Special) to usenofp.o(x$fpl$usenofp) for __I$use$fp
    drleqf.o(x$fpl$drleqf) refers to dleqf.o(x$fpl$dleqf) for __fpl_dcmple_InfNaN
    f2d.o(x$fpl$f2d) refers (Special) to usenofp.o(x$fpl$usenofp) for __I$use$fp
    f2d.o(x$fpl$f2d) refers to fnaninf.o(x$fpl$fnaninf) for __fpl_fnaninf
    f2d.o(x$fpl$f2d) refers to dretinf.o(x$fpl$dretinf) for __fpl_dretinf
    atan.o(i.__hardfp_atan) refers (Special) to usenofp.o(x$fpl$usenofp) for __I$use$fp
    atan.o(i.__hardfp_atan) refers to daddsub_clz.o(x$fpl$dadd) for __aeabi_dadd
    atan.o(i.__hardfp_atan) refers to fpclassify.o(i.__ARM_fpclassify) for __ARM_fpclassify
    atan.o(i.__hardfp_atan) refers to dunder.o(i.__mathlib_dbl_underflow) for __mathlib_dbl_underflow
    atan.o(i.__hardfp_atan) refers to fabs.o(i.fabs) for fabs
    atan.o(i.__hardfp_atan) refers to dmul.o(x$fpl$dmul) for __aeabi_dmul
    atan.o(i.__hardfp_atan) refers to daddsub_clz.o(x$fpl$dsub) for __aeabi_dsub
    atan.o(i.__hardfp_atan) refers to ddiv.o(x$fpl$ddiv) for __aeabi_ddiv
    atan.o(i.__hardfp_atan) refers to poly.o(i.__kernel_poly) for __kernel_poly
    atan.o(i.__hardfp_atan) refers to daddsub_clz.o(x$fpl$drsb) for __aeabi_drsub
    atan.o(i.__hardfp_atan) refers to basic.o(x$fpl$basic) for __aeabi_dneg
    atan.o(i.__hardfp_atan) refers to atan.o(.constdata) for .constdata
    atan.o(i.__softfp_atan) refers (Special) to usenofp.o(x$fpl$usenofp) for __I$use$fp
    atan.o(i.__softfp_atan) refers to atan.o(i.__hardfp_atan) for __hardfp_atan
    atan.o(i.atan) refers (Special) to usenofp.o(x$fpl$usenofp) for __I$use$fp
    atan.o(i.atan) refers to atan.o(i.__hardfp_atan) for __hardfp_atan
    atan.o(.constdata) refers (Special) to usenofp.o(x$fpl$usenofp) for __I$use$fp
    atan_x.o(i.____hardfp_atan$lsc) refers (Special) to usenofp.o(x$fpl$usenofp) for __I$use$fp
    atan_x.o(i.____hardfp_atan$lsc) refers to daddsub_clz.o(x$fpl$dadd) for __aeabi_dadd
    atan_x.o(i.____hardfp_atan$lsc) refers to fabs.o(i.fabs) for fabs
    atan_x.o(i.____hardfp_atan$lsc) refers to dmul.o(x$fpl$dmul) for __aeabi_dmul
    atan_x.o(i.____hardfp_atan$lsc) refers to daddsub_clz.o(x$fpl$dsub) for __aeabi_dsub
    atan_x.o(i.____hardfp_atan$lsc) refers to ddiv.o(x$fpl$ddiv) for __aeabi_ddiv
    atan_x.o(i.____hardfp_atan$lsc) refers to poly.o(i.__kernel_poly) for __kernel_poly
    atan_x.o(i.____hardfp_atan$lsc) refers to daddsub_clz.o(x$fpl$drsb) for __aeabi_drsub
    atan_x.o(i.____hardfp_atan$lsc) refers to basic.o(x$fpl$basic) for __aeabi_dneg
    atan_x.o(i.____hardfp_atan$lsc) refers to atan_x.o(.constdata) for .constdata
    atan_x.o(i.____softfp_atan$lsc) refers (Special) to usenofp.o(x$fpl$usenofp) for __I$use$fp
    atan_x.o(i.____softfp_atan$lsc) refers to atan_x.o(i.____hardfp_atan$lsc) for ____hardfp_atan$lsc
    atan_x.o(i.__atan$lsc) refers (Special) to usenofp.o(x$fpl$usenofp) for __I$use$fp
    atan_x.o(i.__atan$lsc) refers to atan_x.o(i.____hardfp_atan$lsc) for ____hardfp_atan$lsc
    atan_x.o(.constdata) refers (Special) to usenofp.o(x$fpl$usenofp) for __I$use$fp
    atan2.o(i.__hardfp_atan2) refers (Special) to usenofp.o(x$fpl$usenofp) for __I$use$fp
    atan2.o(i.__hardfp_atan2) refers to daddsub_clz.o(x$fpl$dadd) for __aeabi_dadd
    atan2.o(i.__hardfp_atan2) refers to atan.o(i.atan) for atan
    atan2.o(i.__hardfp_atan2) refers to basic.o(x$fpl$basic) for __aeabi_dneg
    atan2.o(i.__hardfp_atan2) refers to ddiv.o(x$fpl$ddiv) for __aeabi_ddiv
    atan2.o(i.__hardfp_atan2) refers to fabs.o(i.fabs) for fabs
    atan2.o(i.__hardfp_atan2) refers to daddsub_clz.o(x$fpl$dsub) for __aeabi_dsub
    atan2.o(i.__hardfp_atan2) refers to daddsub_clz.o(x$fpl$drsb) for __aeabi_drsub
    atan2.o(i.__hardfp_atan2) refers to qnan.o(.constdata) for __mathlib_zero
    atan2.o(i.__softfp_atan2) refers (Special) to usenofp.o(x$fpl$usenofp) for __I$use$fp
    atan2.o(i.__softfp_atan2) refers to atan2.o(i.__hardfp_atan2) for __hardfp_atan2
    atan2.o(i.atan2) refers (Special) to usenofp.o(x$fpl$usenofp) for __I$use$fp
    atan2.o(i.atan2) refers to atan2.o(i.__hardfp_atan2) for __hardfp_atan2
    atan2_x.o(i.____hardfp_atan2$lsc) refers (Special) to usenofp.o(x$fpl$usenofp) for __I$use$fp
    atan2_x.o(i.____hardfp_atan2$lsc) refers to daddsub_clz.o(x$fpl$dadd) for __aeabi_dadd
    atan2_x.o(i.____hardfp_atan2$lsc) refers to atan.o(i.atan) for atan
    atan2_x.o(i.____hardfp_atan2$lsc) refers to _rserrno.o(.text) for __set_errno
    atan2_x.o(i.____hardfp_atan2$lsc) refers to basic.o(x$fpl$basic) for __aeabi_dneg
    atan2_x.o(i.____hardfp_atan2$lsc) refers to ddiv.o(x$fpl$ddiv) for __aeabi_ddiv
    atan2_x.o(i.____hardfp_atan2$lsc) refers to fabs.o(i.fabs) for fabs
    atan2_x.o(i.____hardfp_atan2$lsc) refers to daddsub_clz.o(x$fpl$dsub) for __aeabi_dsub
    atan2_x.o(i.____hardfp_atan2$lsc) refers to daddsub_clz.o(x$fpl$drsb) for __aeabi_drsub
    atan2_x.o(i.____hardfp_atan2$lsc) refers to qnan.o(.constdata) for __mathlib_zero
    atan2_x.o(i.____softfp_atan2$lsc) refers (Special) to usenofp.o(x$fpl$usenofp) for __I$use$fp
    atan2_x.o(i.____softfp_atan2$lsc) refers to atan2_x.o(i.____hardfp_atan2$lsc) for ____hardfp_atan2$lsc
    atan2_x.o(i.__atan2$lsc) refers (Special) to usenofp.o(x$fpl$usenofp) for __I$use$fp
    atan2_x.o(i.__atan2$lsc) refers to atan2_x.o(i.____hardfp_atan2$lsc) for ____hardfp_atan2$lsc
    cos.o(i.__hardfp_cos) refers (Special) to usenofp.o(x$fpl$usenofp) for __I$use$fp
    cos.o(i.__hardfp_cos) refers to _rserrno.o(.text) for __set_errno
    cos.o(i.__hardfp_cos) refers to ddiv.o(x$fpl$ddiv) for __aeabi_ddiv
    cos.o(i.__hardfp_cos) refers to daddsub_clz.o(x$fpl$dadd) for __aeabi_dadd
    cos.o(i.__hardfp_cos) refers to rred.o(i.__ieee754_rem_pio2) for __ieee754_rem_pio2
    cos.o(i.__hardfp_cos) refers to sin_i.o(i.__kernel_sin) for __kernel_sin
    cos.o(i.__hardfp_cos) refers to cos_i.o(i.__kernel_cos) for __kernel_cos
    cos.o(i.__hardfp_cos) refers to basic.o(x$fpl$basic) for __aeabi_dneg
    cos.o(i.__softfp_cos) refers (Special) to usenofp.o(x$fpl$usenofp) for __I$use$fp
    cos.o(i.__softfp_cos) refers to cos.o(i.__hardfp_cos) for __hardfp_cos
    cos.o(i.cos) refers (Special) to usenofp.o(x$fpl$usenofp) for __I$use$fp
    cos.o(i.cos) refers to cos.o(i.__hardfp_cos) for __hardfp_cos
    cos_x.o(i.____hardfp_cos$lsc) refers (Special) to usenofp.o(x$fpl$usenofp) for __I$use$fp
    cos_x.o(i.____hardfp_cos$lsc) refers to _rserrno.o(.text) for __set_errno
    cos_x.o(i.____hardfp_cos$lsc) refers to daddsub_clz.o(x$fpl$dadd) for __aeabi_dadd
    cos_x.o(i.____hardfp_cos$lsc) refers to rred.o(i.__ieee754_rem_pio2) for __ieee754_rem_pio2
    cos_x.o(i.____hardfp_cos$lsc) refers to sin_i.o(i.__kernel_sin) for __kernel_sin
    cos_x.o(i.____hardfp_cos$lsc) refers to cos_i.o(i.__kernel_cos) for __kernel_cos
    cos_x.o(i.____hardfp_cos$lsc) refers to basic.o(x$fpl$basic) for __aeabi_dneg
    cos_x.o(i.____softfp_cos$lsc) refers (Special) to usenofp.o(x$fpl$usenofp) for __I$use$fp
    cos_x.o(i.____softfp_cos$lsc) refers to cos_x.o(i.____hardfp_cos$lsc) for ____hardfp_cos$lsc
    cos_x.o(i.__cos$lsc) refers (Special) to usenofp.o(x$fpl$usenofp) for __I$use$fp
    cos_x.o(i.__cos$lsc) refers to cos_x.o(i.____hardfp_cos$lsc) for ____hardfp_cos$lsc
    fabs.o(i.__hardfp_fabs) refers (Special) to usenofp.o(x$fpl$usenofp) for __I$use$fp
    fabs.o(i.__softfp_fabs) refers (Special) to usenofp.o(x$fpl$usenofp) for __I$use$fp
    fabs.o(i.fabs) refers (Special) to usenofp.o(x$fpl$usenofp) for __I$use$fp
    log.o(i.__hardfp_log) refers (Special) to usenofp.o(x$fpl$usenofp) for __I$use$fp
    log.o(i.__hardfp_log) refers to daddsub_clz.o(x$fpl$dadd) for __aeabi_dadd
    log.o(i.__hardfp_log) refers to _rserrno.o(.text) for __set_errno
    log.o(i.__hardfp_log) refers to ddiv.o(x$fpl$ddiv) for __aeabi_ddiv
    log.o(i.__hardfp_log) refers to dmul.o(x$fpl$dmul) for __aeabi_dmul
    log.o(i.__hardfp_log) refers to daddsub_clz.o(x$fpl$dsub) for __aeabi_dsub
    log.o(i.__hardfp_log) refers to deqf.o(x$fpl$deqf) for __aeabi_cdcmpeq
    log.o(i.__hardfp_log) refers to dflt_clz.o(x$fpl$dflt) for __aeabi_i2d
    log.o(i.__hardfp_log) refers to daddsub_clz.o(x$fpl$drsb) for __aeabi_drsub
    log.o(i.__hardfp_log) refers to poly.o(i.__kernel_poly) for __kernel_poly
    log.o(i.__hardfp_log) refers to qnan.o(.constdata) for __mathlib_zero
    log.o(i.__hardfp_log) refers to log.o(.constdata) for .constdata
    log.o(i.__softfp_log) refers (Special) to usenofp.o(x$fpl$usenofp) for __I$use$fp
    log.o(i.__softfp_log) refers to log.o(i.__hardfp_log) for __hardfp_log
    log.o(i.log) refers (Special) to usenofp.o(x$fpl$usenofp) for __I$use$fp
    log.o(i.log) refers to log.o(i.__hardfp_log) for __hardfp_log
    log.o(.constdata) refers (Special) to usenofp.o(x$fpl$usenofp) for __I$use$fp
    log_x.o(i.____hardfp_log$lsc) refers (Special) to usenofp.o(x$fpl$usenofp) for __I$use$fp
    log_x.o(i.____hardfp_log$lsc) refers to daddsub_clz.o(x$fpl$dadd) for __aeabi_dadd
    log_x.o(i.____hardfp_log$lsc) refers to _rserrno.o(.text) for __set_errno
    log_x.o(i.____hardfp_log$lsc) refers to dmul.o(x$fpl$dmul) for __aeabi_dmul
    log_x.o(i.____hardfp_log$lsc) refers to daddsub_clz.o(x$fpl$dsub) for __aeabi_dsub
    log_x.o(i.____hardfp_log$lsc) refers to deqf.o(x$fpl$deqf) for __aeabi_cdcmpeq
    log_x.o(i.____hardfp_log$lsc) refers to dflt_clz.o(x$fpl$dflt) for __aeabi_i2d
    log_x.o(i.____hardfp_log$lsc) refers to daddsub_clz.o(x$fpl$drsb) for __aeabi_drsub
    log_x.o(i.____hardfp_log$lsc) refers to ddiv.o(x$fpl$ddiv) for __aeabi_ddiv
    log_x.o(i.____hardfp_log$lsc) refers to poly.o(i.__kernel_poly) for __kernel_poly
    log_x.o(i.____hardfp_log$lsc) refers to qnan.o(.constdata) for __mathlib_zero
    log_x.o(i.____hardfp_log$lsc) refers to log_x.o(.constdata) for .constdata
    log_x.o(i.____softfp_log$lsc) refers (Special) to usenofp.o(x$fpl$usenofp) for __I$use$fp
    log_x.o(i.____softfp_log$lsc) refers to log_x.o(i.____hardfp_log$lsc) for ____hardfp_log$lsc
    log_x.o(i.__log$lsc) refers (Special) to usenofp.o(x$fpl$usenofp) for __I$use$fp
    log_x.o(i.__log$lsc) refers to log_x.o(i.____hardfp_log$lsc) for ____hardfp_log$lsc
    log_x.o(.constdata) refers (Special) to usenofp.o(x$fpl$usenofp) for __I$use$fp
    pow.o(i.__hardfp_pow) refers (Special) to usenofp.o(x$fpl$usenofp) for __I$use$fp
    pow.o(i.__hardfp_pow) refers to daddsub_clz.o(x$fpl$dadd) for __aeabi_dadd
    pow.o(i.__hardfp_pow) refers to _rserrno.o(.text) for __set_errno
    pow.o(i.__hardfp_pow) refers to basic.o(x$fpl$basic) for __aeabi_dneg
    pow.o(i.__hardfp_pow) refers to dmul.o(x$fpl$dmul) for __aeabi_dmul
    pow.o(i.__hardfp_pow) refers to ddiv.o(x$fpl$ddiv) for __aeabi_ddiv
    pow.o(i.__hardfp_pow) refers to sqrt.o(i.sqrt) for sqrt
    pow.o(i.__hardfp_pow) refers to fabs.o(i.fabs) for fabs
    pow.o(i.__hardfp_pow) refers to dunder.o(i.__mathlib_dbl_underflow) for __mathlib_dbl_underflow
    pow.o(i.__hardfp_pow) refers to daddsub_clz.o(x$fpl$dsub) for __aeabi_dsub
    pow.o(i.__hardfp_pow) refers to daddsub_clz.o(x$fpl$drsb) for __aeabi_drsub
    pow.o(i.__hardfp_pow) refers to qnan.o(.constdata) for __mathlib_zero
    pow.o(i.__hardfp_pow) refers to poly.o(i.__kernel_poly) for __kernel_poly
    pow.o(i.__hardfp_pow) refers to dflt_clz.o(x$fpl$dflt) for __aeabi_i2d
    pow.o(i.__hardfp_pow) refers to pow.o(.constdata) for .constdata
    pow.o(i.__hardfp_pow) refers to drleqf.o(x$fpl$drleqf) for __aeabi_cdrcmple
    pow.o(i.__hardfp_pow) refers to scalbn.o(x$fpl$scalbn) for __ARM_scalbn
    pow.o(i.__hardfp_pow) refers to fpclassify.o(i.__ARM_fpclassify) for __ARM_fpclassify
    pow.o(i.__softfp_pow) refers (Special) to usenofp.o(x$fpl$usenofp) for __I$use$fp
    pow.o(i.__softfp_pow) refers to pow.o(i.__hardfp_pow) for __hardfp_pow
    pow.o(i.pow) refers (Special) to usenofp.o(x$fpl$usenofp) for __I$use$fp
    pow.o(i.pow) refers to pow.o(i.__hardfp_pow) for __hardfp_pow
    pow.o(.constdata) refers (Special) to usenofp.o(x$fpl$usenofp) for __I$use$fp
    pow_x.o(i.____hardfp_pow$lsc) refers (Special) to usenofp.o(x$fpl$usenofp) for __I$use$fp
    pow_x.o(i.____hardfp_pow$lsc) refers to daddsub_clz.o(x$fpl$dadd) for __aeabi_dadd
    pow_x.o(i.____hardfp_pow$lsc) refers to _rserrno.o(.text) for __set_errno
    pow_x.o(i.____hardfp_pow$lsc) refers to basic.o(x$fpl$basic) for __aeabi_dneg
    pow_x.o(i.____hardfp_pow$lsc) refers to ddiv.o(x$fpl$ddiv) for __aeabi_ddiv
    pow_x.o(i.____hardfp_pow$lsc) refers to sqrt.o(i.sqrt) for sqrt
    pow_x.o(i.____hardfp_pow$lsc) refers to fabs.o(i.fabs) for fabs
    pow_x.o(i.____hardfp_pow$lsc) refers to dflt_clz.o(x$fpl$dflt) for __aeabi_i2d
    pow_x.o(i.____hardfp_pow$lsc) refers to daddsub_clz.o(x$fpl$dsub) for __aeabi_dsub
    pow_x.o(i.____hardfp_pow$lsc) refers to dmul.o(x$fpl$dmul) for __aeabi_dmul
    pow_x.o(i.____hardfp_pow$lsc) refers to daddsub_clz.o(x$fpl$drsb) for __aeabi_drsub
    pow_x.o(i.____hardfp_pow$lsc) refers to qnan.o(.constdata) for __mathlib_zero
    pow_x.o(i.____hardfp_pow$lsc) refers to poly.o(i.__kernel_poly) for __kernel_poly
    pow_x.o(i.____hardfp_pow$lsc) refers to pow_x.o(.constdata) for .constdata
    pow_x.o(i.____hardfp_pow$lsc) refers to drleqf.o(x$fpl$drleqf) for __aeabi_cdrcmple
    pow_x.o(i.____hardfp_pow$lsc) refers to scalbn.o(x$fpl$scalbn) for __ARM_scalbn
    pow_x.o(i.____softfp_pow$lsc) refers (Special) to usenofp.o(x$fpl$usenofp) for __I$use$fp
    pow_x.o(i.____softfp_pow$lsc) refers to pow_x.o(i.____hardfp_pow$lsc) for ____hardfp_pow$lsc
    pow_x.o(i.__pow$lsc) refers (Special) to usenofp.o(x$fpl$usenofp) for __I$use$fp
    pow_x.o(i.__pow$lsc) refers to pow_x.o(i.____hardfp_pow$lsc) for ____hardfp_pow$lsc
    pow_x.o(.constdata) refers (Special) to usenofp.o(x$fpl$usenofp) for __I$use$fp
    sin.o(i.__hardfp_sin) refers (Special) to usenofp.o(x$fpl$usenofp) for __I$use$fp
    sin.o(i.__hardfp_sin) refers to _rserrno.o(.text) for __set_errno
    sin.o(i.__hardfp_sin) refers to ddiv.o(x$fpl$ddiv) for __aeabi_ddiv
    sin.o(i.__hardfp_sin) refers to daddsub_clz.o(x$fpl$dadd) for __aeabi_dadd
    sin.o(i.__hardfp_sin) refers to rred.o(i.__ieee754_rem_pio2) for __ieee754_rem_pio2
    sin.o(i.__hardfp_sin) refers to cos_i.o(i.__kernel_cos) for __kernel_cos
    sin.o(i.__hardfp_sin) refers to basic.o(x$fpl$basic) for __aeabi_dneg
    sin.o(i.__hardfp_sin) refers to sin_i.o(i.__kernel_sin) for __kernel_sin
    sin.o(i.__softfp_sin) refers (Special) to usenofp.o(x$fpl$usenofp) for __I$use$fp
    sin.o(i.__softfp_sin) refers to sin.o(i.__hardfp_sin) for __hardfp_sin
    sin.o(i.sin) refers (Special) to usenofp.o(x$fpl$usenofp) for __I$use$fp
    sin.o(i.sin) refers to sin.o(i.__hardfp_sin) for __hardfp_sin
    sin_x.o(i.____hardfp_sin$lsc) refers (Special) to usenofp.o(x$fpl$usenofp) for __I$use$fp
    sin_x.o(i.____hardfp_sin$lsc) refers to _rserrno.o(.text) for __set_errno
    sin_x.o(i.____hardfp_sin$lsc) refers to daddsub_clz.o(x$fpl$dadd) for __aeabi_dadd
    sin_x.o(i.____hardfp_sin$lsc) refers to rred.o(i.__ieee754_rem_pio2) for __ieee754_rem_pio2
    sin_x.o(i.____hardfp_sin$lsc) refers to cos_i.o(i.__kernel_cos) for __kernel_cos
    sin_x.o(i.____hardfp_sin$lsc) refers to basic.o(x$fpl$basic) for __aeabi_dneg
    sin_x.o(i.____hardfp_sin$lsc) refers to sin_i.o(i.__kernel_sin) for __kernel_sin
    sin_x.o(i.____softfp_sin$lsc) refers (Special) to usenofp.o(x$fpl$usenofp) for __I$use$fp
    sin_x.o(i.____softfp_sin$lsc) refers to sin_x.o(i.____hardfp_sin$lsc) for ____hardfp_sin$lsc
    sin_x.o(i.__sin$lsc) refers (Special) to usenofp.o(x$fpl$usenofp) for __I$use$fp
    sin_x.o(i.__sin$lsc) refers to sin_x.o(i.____hardfp_sin$lsc) for ____hardfp_sin$lsc
    sqrt.o(i.__hardfp_sqrt) refers (Special) to usenofp.o(x$fpl$usenofp) for __I$use$fp
    sqrt.o(i.__hardfp_sqrt) refers to dsqrt_umaal.o(x$fpl$dsqrt) for _dsqrt
    sqrt.o(i.__hardfp_sqrt) refers to _rserrno.o(.text) for __set_errno
    sqrt.o(i.__softfp_sqrt) refers (Special) to usenofp.o(x$fpl$usenofp) for __I$use$fp
    sqrt.o(i.__softfp_sqrt) refers to dsqrt_umaal.o(x$fpl$dsqrt) for _dsqrt
    sqrt.o(i.__softfp_sqrt) refers to _rserrno.o(.text) for __set_errno
    sqrt.o(i.sqrt) refers (Special) to usenofp.o(x$fpl$usenofp) for __I$use$fp
    sqrt.o(i.sqrt) refers to dsqrt_umaal.o(x$fpl$dsqrt) for _dsqrt
    sqrt.o(i.sqrt) refers to _rserrno.o(.text) for __set_errno
    sqrt_x.o(i.____hardfp_sqrt$lsc) refers (Special) to usenofp.o(x$fpl$usenofp) for __I$use$fp
    sqrt_x.o(i.____hardfp_sqrt$lsc) refers to dleqf.o(x$fpl$dleqf) for __aeabi_cdcmple
    sqrt_x.o(i.____hardfp_sqrt$lsc) refers to _rserrno.o(.text) for __set_errno
    sqrt_x.o(i.____hardfp_sqrt$lsc) refers to dsqrt_umaal.o(x$fpl$dsqrt) for _dsqrt
    sqrt_x.o(i.____softfp_sqrt$lsc) refers (Special) to usenofp.o(x$fpl$usenofp) for __I$use$fp
    sqrt_x.o(i.____softfp_sqrt$lsc) refers to dleqf.o(x$fpl$dleqf) for __aeabi_cdcmple
    sqrt_x.o(i.____softfp_sqrt$lsc) refers to _rserrno.o(.text) for __set_errno
    sqrt_x.o(i.____softfp_sqrt$lsc) refers to dsqrt_umaal.o(x$fpl$dsqrt) for _dsqrt
    sqrt_x.o(i.__sqrt$lsc) refers (Special) to usenofp.o(x$fpl$usenofp) for __I$use$fp
    sqrt_x.o(i.__sqrt$lsc) refers to dleqf.o(x$fpl$dleqf) for __aeabi_cdcmple
    sqrt_x.o(i.__sqrt$lsc) refers to _rserrno.o(.text) for __set_errno
    sqrt_x.o(i.__sqrt$lsc) refers to dsqrt_umaal.o(x$fpl$dsqrt) for _dsqrt
    tan.o(i.__hardfp_tan) refers (Special) to usenofp.o(x$fpl$usenofp) for __I$use$fp
    tan.o(i.__hardfp_tan) refers to _rserrno.o(.text) for __set_errno
    tan.o(i.__hardfp_tan) refers to ddiv.o(x$fpl$ddiv) for __aeabi_ddiv
    tan.o(i.__hardfp_tan) refers to daddsub_clz.o(x$fpl$dadd) for __aeabi_dadd
    tan.o(i.__hardfp_tan) refers to rred.o(i.__ieee754_rem_pio2) for __ieee754_rem_pio2
    tan.o(i.__hardfp_tan) refers to tan_i.o(i.__kernel_tan) for __kernel_tan
    tan.o(i.__softfp_tan) refers (Special) to usenofp.o(x$fpl$usenofp) for __I$use$fp
    tan.o(i.__softfp_tan) refers to tan.o(i.__hardfp_tan) for __hardfp_tan
    tan.o(i.tan) refers (Special) to usenofp.o(x$fpl$usenofp) for __I$use$fp
    tan.o(i.tan) refers to tan.o(i.__hardfp_tan) for __hardfp_tan
    tan_x.o(i.____hardfp_tan$lsc) refers (Special) to usenofp.o(x$fpl$usenofp) for __I$use$fp
    tan_x.o(i.____hardfp_tan$lsc) refers to _rserrno.o(.text) for __set_errno
    tan_x.o(i.____hardfp_tan$lsc) refers to daddsub_clz.o(x$fpl$dadd) for __aeabi_dadd
    tan_x.o(i.____hardfp_tan$lsc) refers to rred.o(i.__ieee754_rem_pio2) for __ieee754_rem_pio2
    tan_x.o(i.____hardfp_tan$lsc) refers to tan_i.o(i.__kernel_tan) for __kernel_tan
    tan_x.o(i.____softfp_tan$lsc) refers (Special) to usenofp.o(x$fpl$usenofp) for __I$use$fp
    tan_x.o(i.____softfp_tan$lsc) refers to _rserrno.o(.text) for __set_errno
    tan_x.o(i.____softfp_tan$lsc) refers to daddsub_clz.o(x$fpl$dadd) for __aeabi_dadd
    tan_x.o(i.____softfp_tan$lsc) refers to rred.o(i.__ieee754_rem_pio2) for __ieee754_rem_pio2
    tan_x.o(i.____softfp_tan$lsc) refers to tan_i.o(i.__kernel_tan) for __kernel_tan
    tan_x.o(i.__tan$lsc) refers (Special) to usenofp.o(x$fpl$usenofp) for __I$use$fp
    tan_x.o(i.__tan$lsc) refers to _rserrno.o(.text) for __set_errno
    tan_x.o(i.__tan$lsc) refers to daddsub_clz.o(x$fpl$dadd) for __aeabi_dadd
    tan_x.o(i.__tan$lsc) refers to rred.o(i.__ieee754_rem_pio2) for __ieee754_rem_pio2
    tan_x.o(i.__tan$lsc) refers to tan_i.o(i.__kernel_tan) for __kernel_tan
    rtentry.o(.ARM.Collect$$rtentry$$00000000) refers (Special) to rtentry2.o(.ARM.Collect$$rtentry$$0000000A) for __rt_entry_li
    rtentry.o(.ARM.Collect$$rtentry$$00000000) refers (Special) to rtentry2.o(.ARM.Collect$$rtentry$$0000000D) for __rt_entry_main
    rtentry.o(.ARM.Collect$$rtentry$$00000000) refers (Special) to rtentry2.o(.ARM.Collect$$rtentry$$0000000C) for __rt_entry_postli_1
    rtentry.o(.ARM.Collect$$rtentry$$00000000) refers (Special) to rtentry2.o(.ARM.Collect$$rtentry$$00000009) for __rt_entry_postsh_1
    rtentry.o(.ARM.Collect$$rtentry$$00000000) refers (Special) to rtentry2.o(.ARM.Collect$$rtentry$$00000002) for __rt_entry_presh_1
    rtentry.o(.ARM.Collect$$rtentry$$00000000) refers (Special) to rtentry4.o(.ARM.Collect$$rtentry$$00000004) for __rt_entry_sh
    _rserrno.o(.text) refers to rt_errno_addr_intlibspace.o(.text) for __aeabi_errno_addr
    dcmpi.o(x$fpl$dcmpinf) refers (Special) to usenofp.o(x$fpl$usenofp) for __I$use$fp
    dnaninf.o(x$fpl$dnaninf) refers (Special) to usenofp.o(x$fpl$usenofp) for __I$use$fp
    dretinf.o(x$fpl$dretinf) refers (Special) to usenofp.o(x$fpl$usenofp) for __I$use$fp
    dsqrt_umaal.o(x$fpl$dsqrt) refers (Special) to usenofp.o(x$fpl$usenofp) for __I$use$fp
    dsqrt_umaal.o(x$fpl$dsqrt) refers to dnaninf.o(x$fpl$dnaninf) for __fpl_dnaninf
    fnaninf.o(x$fpl$fnaninf) refers (Special) to usenofp.o(x$fpl$usenofp) for __I$use$fp
    fretinf.o(x$fpl$fretinf) refers (Special) to usenofp.o(x$fpl$usenofp) for __I$use$fp
    scalbn.o(x$fpl$scalbn) refers (Special) to usenofp.o(x$fpl$usenofp) for __I$use$fp
    scalbn.o(x$fpl$scalbn) refers to dcheck1.o(x$fpl$dcheck1) for __fpl_dcheck_NaN1
    cos_i.o(i.__kernel_cos) refers (Special) to usenofp.o(x$fpl$usenofp) for __I$use$fp
    cos_i.o(i.__kernel_cos) refers to dfix.o(x$fpl$dfix) for __aeabi_d2iz
    cos_i.o(i.__kernel_cos) refers to dmul.o(x$fpl$dmul) for __aeabi_dmul
    cos_i.o(i.__kernel_cos) refers to poly.o(i.__kernel_poly) for __kernel_poly
    cos_i.o(i.__kernel_cos) refers to daddsub_clz.o(x$fpl$dsub) for __aeabi_dsub
    cos_i.o(i.__kernel_cos) refers to daddsub_clz.o(x$fpl$drsb) for __aeabi_drsub
    cos_i.o(i.__kernel_cos) refers to cos_i.o(.constdata) for .constdata
    cos_i.o(.constdata) refers (Special) to usenofp.o(x$fpl$usenofp) for __I$use$fp
    dunder.o(i.__mathlib_dbl_underflow) refers to dmul.o(x$fpl$dmul) for __aeabi_dmul
    fpclassify.o(i.__ARM_fpclassify) refers (Special) to usenofp.o(x$fpl$usenofp) for __I$use$fp
    poly.o(i.__kernel_poly) refers (Special) to usenofp.o(x$fpl$usenofp) for __I$use$fp
    poly.o(i.__kernel_poly) refers to dmul.o(x$fpl$dmul) for __aeabi_dmul
    poly.o(i.__kernel_poly) refers to daddsub_clz.o(x$fpl$dadd) for __aeabi_dadd
    qnan.o(.constdata) refers (Special) to usenofp.o(x$fpl$usenofp) for __I$use$fp
    rred.o(i.__ieee754_rem_pio2) refers (Special) to usenofp.o(x$fpl$usenofp) for __I$use$fp
    rred.o(i.__ieee754_rem_pio2) refers to daddsub_clz.o(x$fpl$dsub) for __aeabi_dsub
    rred.o(i.__ieee754_rem_pio2) refers to daddsub_clz.o(x$fpl$dadd) for __aeabi_dadd
    rred.o(i.__ieee754_rem_pio2) refers to fabs.o(i.fabs) for fabs
    rred.o(i.__ieee754_rem_pio2) refers to dmul.o(x$fpl$dmul) for __aeabi_dmul
    rred.o(i.__ieee754_rem_pio2) refers to dfix.o(x$fpl$dfix) for __aeabi_d2iz
    rred.o(i.__ieee754_rem_pio2) refers to dflt_clz.o(x$fpl$dflt) for __aeabi_i2d
    rred.o(i.__ieee754_rem_pio2) refers to daddsub_clz.o(x$fpl$drsb) for __aeabi_drsub
    rred.o(i.__ieee754_rem_pio2) refers to basic.o(x$fpl$basic) for __aeabi_dneg
    rred.o(i.__ieee754_rem_pio2) refers to dflt_clz.o(x$fpl$dfltu) for __aeabi_ui2d
    rred.o(i.__ieee754_rem_pio2) refers to rred.o(.constdata) for .constdata
    rred.o(i.__use_accurate_range_reduction) refers (Special) to usenofp.o(x$fpl$usenofp) for __I$use$fp
    rred.o(.constdata) refers (Special) to usenofp.o(x$fpl$usenofp) for __I$use$fp
    sin_i.o(i.__kernel_sin) refers (Special) to usenofp.o(x$fpl$usenofp) for __I$use$fp
    sin_i.o(i.__kernel_sin) refers to fpclassify.o(i.__ARM_fpclassify) for __ARM_fpclassify
    sin_i.o(i.__kernel_sin) refers to dunder.o(i.__mathlib_dbl_underflow) for __mathlib_dbl_underflow
    sin_i.o(i.__kernel_sin) refers to dmul.o(x$fpl$dmul) for __aeabi_dmul
    sin_i.o(i.__kernel_sin) refers to poly.o(i.__kernel_poly) for __kernel_poly
    sin_i.o(i.__kernel_sin) refers to daddsub_clz.o(x$fpl$dsub) for __aeabi_dsub
    sin_i.o(i.__kernel_sin) refers to daddsub_clz.o(x$fpl$drsb) for __aeabi_drsub
    sin_i.o(i.__kernel_sin) refers to daddsub_clz.o(x$fpl$dadd) for __aeabi_dadd
    sin_i.o(i.__kernel_sin) refers to sin_i.o(.constdata) for .constdata
    sin_i.o(.constdata) refers (Special) to usenofp.o(x$fpl$usenofp) for __I$use$fp
    sin_i_x.o(i.____kernel_sin$lsc) refers (Special) to usenofp.o(x$fpl$usenofp) for __I$use$fp
    sin_i_x.o(i.____kernel_sin$lsc) refers to dmul.o(x$fpl$dmul) for __aeabi_dmul
    sin_i_x.o(i.____kernel_sin$lsc) refers to poly.o(i.__kernel_poly) for __kernel_poly
    sin_i_x.o(i.____kernel_sin$lsc) refers to daddsub_clz.o(x$fpl$dsub) for __aeabi_dsub
    sin_i_x.o(i.____kernel_sin$lsc) refers to daddsub_clz.o(x$fpl$drsb) for __aeabi_drsub
    sin_i_x.o(i.____kernel_sin$lsc) refers to daddsub_clz.o(x$fpl$dadd) for __aeabi_dadd
    sin_i_x.o(i.____kernel_sin$lsc) refers to sin_i_x.o(.constdata) for .constdata
    sin_i_x.o(.constdata) refers (Special) to usenofp.o(x$fpl$usenofp) for __I$use$fp
    tan_i.o(i.__kernel_tan) refers (Special) to usenofp.o(x$fpl$usenofp) for __I$use$fp
    tan_i.o(i.__kernel_tan) refers to dfix.o(x$fpl$dfix) for __aeabi_d2iz
    tan_i.o(i.__kernel_tan) refers to basic.o(x$fpl$basic) for __aeabi_dneg
    tan_i.o(i.__kernel_tan) refers to daddsub_clz.o(x$fpl$drsb) for __aeabi_drsub
    tan_i.o(i.__kernel_tan) refers to daddsub_clz.o(x$fpl$dsub) for __aeabi_dsub
    tan_i.o(i.__kernel_tan) refers to daddsub_clz.o(x$fpl$dadd) for __aeabi_dadd
    tan_i.o(i.__kernel_tan) refers to dmul.o(x$fpl$dmul) for __aeabi_dmul
    tan_i.o(i.__kernel_tan) refers to poly.o(i.__kernel_poly) for __kernel_poly
    tan_i.o(i.__kernel_tan) refers to dflt_clz.o(x$fpl$dflt) for __aeabi_i2d
    tan_i.o(i.__kernel_tan) refers to ddiv.o(x$fpl$ddiv) for __aeabi_ddiv
    tan_i.o(i.__kernel_tan) refers to fabs.o(i.fabs) for fabs
    tan_i.o(i.__kernel_tan) refers to fpclassify.o(i.__ARM_fpclassify) for __ARM_fpclassify
    tan_i.o(i.__kernel_tan) refers to dunder.o(i.__mathlib_dbl_underflow) for __mathlib_dbl_underflow
    tan_i.o(i.__kernel_tan) refers to tan_i.o(.constdata) for .constdata
    tan_i.o(.constdata) refers (Special) to usenofp.o(x$fpl$usenofp) for __I$use$fp
    tan_i_x.o(i.____kernel_tan$lsc) refers (Special) to usenofp.o(x$fpl$usenofp) for __I$use$fp
    tan_i_x.o(i.____kernel_tan$lsc) refers to dfix.o(x$fpl$dfix) for __aeabi_d2iz
    tan_i_x.o(i.____kernel_tan$lsc) refers to basic.o(x$fpl$basic) for __aeabi_dneg
    tan_i_x.o(i.____kernel_tan$lsc) refers to daddsub_clz.o(x$fpl$drsb) for __aeabi_drsub
    tan_i_x.o(i.____kernel_tan$lsc) refers to daddsub_clz.o(x$fpl$dsub) for __aeabi_dsub
    tan_i_x.o(i.____kernel_tan$lsc) refers to daddsub_clz.o(x$fpl$dadd) for __aeabi_dadd
    tan_i_x.o(i.____kernel_tan$lsc) refers to dmul.o(x$fpl$dmul) for __aeabi_dmul
    tan_i_x.o(i.____kernel_tan$lsc) refers to poly.o(i.__kernel_poly) for __kernel_poly
    tan_i_x.o(i.____kernel_tan$lsc) refers to dflt_clz.o(x$fpl$dflt) for __aeabi_i2d
    tan_i_x.o(i.____kernel_tan$lsc) refers to ddiv.o(x$fpl$ddiv) for __aeabi_ddiv
    tan_i_x.o(i.____kernel_tan$lsc) refers to fabs.o(i.fabs) for fabs
    tan_i_x.o(i.____kernel_tan$lsc) refers to tan_i_x.o(.constdata) for .constdata
    tan_i_x.o(.constdata) refers (Special) to usenofp.o(x$fpl$usenofp) for __I$use$fp
    rtentry2.o(.ARM.Collect$$rtentry$$00000008) refers to boardinit2.o(.text) for _platform_post_stackheap_init
    rtentry2.o(.ARM.Collect$$rtentry$$0000000A) refers to libinit.o(.ARM.Collect$$libinit$$00000000) for __rt_lib_init
    rtentry2.o(.ARM.Collect$$rtentry$$0000000B) refers to boardinit3.o(.text) for _platform_post_lib_init
    rtentry2.o(.ARM.Collect$$rtentry$$0000000D) refers to main.o(i.main) for main
    rtentry2.o(.ARM.Collect$$rtentry$$0000000D) refers to exit.o(.text) for exit
    rtentry2.o(.ARM.exidx) refers to rtentry2.o(.ARM.Collect$$rtentry$$00000001) for .ARM.Collect$$rtentry$$00000001
    rtentry2.o(.ARM.exidx) refers to rtentry2.o(.ARM.Collect$$rtentry$$00000008) for .ARM.Collect$$rtentry$$00000008
    rtentry2.o(.ARM.exidx) refers to rtentry2.o(.ARM.Collect$$rtentry$$0000000A) for .ARM.Collect$$rtentry$$0000000A
    rtentry2.o(.ARM.exidx) refers to rtentry2.o(.ARM.Collect$$rtentry$$0000000B) for .ARM.Collect$$rtentry$$0000000B
    rtentry2.o(.ARM.exidx) refers to rtentry2.o(.ARM.Collect$$rtentry$$0000000D) for .ARM.Collect$$rtentry$$0000000D
    rtentry4.o(.ARM.Collect$$rtentry$$00000004) refers to sys_stackheap_outer.o(.text) for __user_setup_stackheap
    rtentry4.o(.ARM.exidx) refers to rtentry4.o(.ARM.Collect$$rtentry$$00000004) for .ARM.Collect$$rtentry$$00000004
    rt_errno_addr.o(.text) refers to rt_errno_addr.o(.bss) for __aeabi_errno_addr_data
    rt_errno_addr_intlibspace.o(.text) refers to libspace.o(.bss) for __libspace_start
    dcheck1.o(x$fpl$dcheck1) refers (Special) to usenofp.o(x$fpl$usenofp) for __I$use$fp
    dcheck1.o(x$fpl$dcheck1) refers to retnan.o(x$fpl$retnan) for __fpl_return_NaN
    libspace.o(.text) refers to libspace.o(.bss) for __libspace_start
    sys_stackheap_outer.o(.text) refers to libspace.o(.text) for __user_perproc_libspace
    sys_stackheap_outer.o(.text) refers to startup_stm32f411xe.o(.text) for __user_initial_stackheap
    exit.o(.text) refers to rtexit.o(.ARM.Collect$$rtexit$$00000000) for __rt_exit
    libinit.o(.ARM.Collect$$libinit$$00000000) refers (Special) to libinit2.o(.ARM.Collect$$libinit$$0000002C) for __rt_lib_init_alloca_1
    libinit.o(.ARM.Collect$$libinit$$00000000) refers (Special) to libinit2.o(.ARM.Collect$$libinit$$0000002A) for __rt_lib_init_argv_1
    libinit.o(.ARM.Collect$$libinit$$00000000) refers (Special) to libinit2.o(.ARM.Collect$$libinit$$00000019) for __rt_lib_init_atexit_1
    libinit.o(.ARM.Collect$$libinit$$00000000) refers (Special) to libinit2.o(.ARM.Collect$$libinit$$0000001F) for __rt_lib_init_clock_1
    libinit.o(.ARM.Collect$$libinit$$00000000) refers (Special) to libinit2.o(.ARM.Collect$$libinit$$00000030) for __rt_lib_init_cpp_1
    libinit.o(.ARM.Collect$$libinit$$00000000) refers (Special) to libinit2.o(.ARM.Collect$$libinit$$0000002E) for __rt_lib_init_exceptions_1
    libinit.o(.ARM.Collect$$libinit$$00000000) refers (Special) to libinit2.o(.ARM.Collect$$libinit$$00000001) for __rt_lib_init_fp_1
    libinit.o(.ARM.Collect$$libinit$$00000000) refers (Special) to libinit2.o(.ARM.Collect$$libinit$$0000001D) for __rt_lib_init_fp_trap_1
    libinit.o(.ARM.Collect$$libinit$$00000000) refers (Special) to libinit2.o(.ARM.Collect$$libinit$$00000021) for __rt_lib_init_getenv_1
    libinit.o(.ARM.Collect$$libinit$$00000000) refers (Special) to libinit2.o(.ARM.Collect$$libinit$$00000008) for __rt_lib_init_heap_1
    libinit.o(.ARM.Collect$$libinit$$00000000) refers (Special) to libinit2.o(.ARM.Collect$$libinit$$0000000F) for __rt_lib_init_lc_collate_1
    libinit.o(.ARM.Collect$$libinit$$00000000) refers (Special) to libinit2.o(.ARM.Collect$$libinit$$00000011) for __rt_lib_init_lc_ctype_1
    libinit.o(.ARM.Collect$$libinit$$00000000) refers (Special) to libinit2.o(.ARM.Collect$$libinit$$00000013) for __rt_lib_init_lc_monetary_1
    libinit.o(.ARM.Collect$$libinit$$00000000) refers (Special) to libinit2.o(.ARM.Collect$$libinit$$00000015) for __rt_lib_init_lc_numeric_1
    libinit.o(.ARM.Collect$$libinit$$00000000) refers (Special) to libinit2.o(.ARM.Collect$$libinit$$00000017) for __rt_lib_init_lc_time_1
    libinit.o(.ARM.Collect$$libinit$$00000000) refers (Special) to libinit2.o(.ARM.Collect$$libinit$$0000000C) for __rt_lib_init_rand_1
    libinit.o(.ARM.Collect$$libinit$$00000000) refers (Special) to libinit2.o(.ARM.Collect$$libinit$$00000031) for __rt_lib_init_return
    libinit.o(.ARM.Collect$$libinit$$00000000) refers (Special) to libinit2.o(.ARM.Collect$$libinit$$0000001B) for __rt_lib_init_signal_1
    libinit.o(.ARM.Collect$$libinit$$00000000) refers (Special) to libinit2.o(.ARM.Collect$$libinit$$00000023) for __rt_lib_init_stdio_1
    libinit.o(.ARM.Collect$$libinit$$00000000) refers (Special) to libinit2.o(.ARM.Collect$$libinit$$0000000A) for __rt_lib_init_user_alloc_1
    retnan.o(x$fpl$retnan) refers (Special) to usenofp.o(x$fpl$usenofp) for __I$use$fp
    retnan.o(x$fpl$retnan) refers to trapv.o(x$fpl$trapveneer) for __fpl_cmpreturn
    rtexit.o(.ARM.Collect$$rtexit$$00000000) refers (Special) to rtexit2.o(.ARM.Collect$$rtexit$$00000004) for __rt_exit_exit
    rtexit.o(.ARM.Collect$$rtexit$$00000000) refers (Special) to rtexit2.o(.ARM.Collect$$rtexit$$00000003) for __rt_exit_ls
    rtexit.o(.ARM.Collect$$rtexit$$00000000) refers (Special) to rtexit2.o(.ARM.Collect$$rtexit$$00000002) for __rt_exit_prels_1
    rtexit.o(.ARM.exidx) refers (Special) to rtexit2.o(.ARM.Collect$$rtexit$$00000004) for __rt_exit_exit
    rtexit.o(.ARM.exidx) refers (Special) to rtexit2.o(.ARM.Collect$$rtexit$$00000003) for __rt_exit_ls
    rtexit.o(.ARM.exidx) refers (Special) to rtexit2.o(.ARM.Collect$$rtexit$$00000002) for __rt_exit_prels_1
    rtexit.o(.ARM.exidx) refers to rtexit.o(.ARM.Collect$$rtexit$$00000000) for .ARM.Collect$$rtexit$$00000000
    libinit2.o(.ARM.Collect$$libinit$$00000001) refers to fpinit.o(x$fpl$fpinit) for _fp_init
    libinit2.o(.ARM.Collect$$libinit$$0000000E) refers to libinit2.o(.ARM.Collect$$libinit$$0000000D) for .ARM.Collect$$libinit$$0000000D
    libinit2.o(.ARM.Collect$$libinit$$00000010) refers to libinit2.o(.ARM.Collect$$libinit$$0000000D) for .ARM.Collect$$libinit$$0000000D
    libinit2.o(.ARM.Collect$$libinit$$00000012) refers to libinit2.o(.ARM.Collect$$libinit$$0000000D) for .ARM.Collect$$libinit$$0000000D
    libinit2.o(.ARM.Collect$$libinit$$00000014) refers to libinit2.o(.ARM.Collect$$libinit$$0000000D) for .ARM.Collect$$libinit$$0000000D
    libinit2.o(.ARM.Collect$$libinit$$00000016) refers to libinit2.o(.ARM.Collect$$libinit$$0000000D) for .ARM.Collect$$libinit$$0000000D
    libinit2.o(.ARM.Collect$$libinit$$00000024) refers to argv_veneer.o(.emb_text) for __ARM_argv_veneer
    libinit2.o(.ARM.Collect$$libinit$$00000025) refers to argv_veneer.o(.emb_text) for __ARM_argv_veneer
    trapv.o(x$fpl$trapveneer) refers (Special) to usenofp.o(x$fpl$usenofp) for __I$use$fp
    rtexit2.o(.ARM.Collect$$rtexit$$00000003) refers to libshutdown.o(.ARM.Collect$$libshutdown$$00000000) for __rt_lib_shutdown
    rtexit2.o(.ARM.Collect$$rtexit$$00000004) refers to sys_exit.o(.text) for _sys_exit
    rtexit2.o(.ARM.exidx) refers to rtexit2.o(.ARM.Collect$$rtexit$$00000001) for .ARM.Collect$$rtexit$$00000001
    rtexit2.o(.ARM.exidx) refers to rtexit2.o(.ARM.Collect$$rtexit$$00000003) for .ARM.Collect$$rtexit$$00000003
    rtexit2.o(.ARM.exidx) refers to rtexit2.o(.ARM.Collect$$rtexit$$00000004) for .ARM.Collect$$rtexit$$00000004
    argv_veneer.o(.emb_text) refers to no_argv.o(.text) for __ARM_get_argv
    sys_exit.o(.text) refers (Special) to use_no_semi.o(.text) for __I$use$semihosting
    sys_exit.o(.text) refers (Special) to indicate_semi.o(.text) for __semihosting_library_function
    _get_argv_nomalloc.o(.text) refers (Special) to hrguard.o(.text) for __heap_region$guard
    _get_argv_nomalloc.o(.text) refers to defsig_rtmem_outer.o(.text) for __rt_SIGRTMEM
    _get_argv_nomalloc.o(.text) refers to sys_command.o(.text) for _sys_command_string
    libshutdown.o(.ARM.Collect$$libshutdown$$00000000) refers (Special) to libshutdown2.o(.ARM.Collect$$libshutdown$$00000006) for __rt_lib_shutdown_fp_trap_1
    libshutdown.o(.ARM.Collect$$libshutdown$$00000000) refers (Special) to libshutdown2.o(.ARM.Collect$$libshutdown$$0000000E) for __rt_lib_shutdown_heap_1
    libshutdown.o(.ARM.Collect$$libshutdown$$00000000) refers (Special) to libshutdown2.o(.ARM.Collect$$libshutdown$$0000000F) for __rt_lib_shutdown_return
    libshutdown.o(.ARM.Collect$$libshutdown$$00000000) refers (Special) to libshutdown2.o(.ARM.Collect$$libshutdown$$00000009) for __rt_lib_shutdown_signal_1
    libshutdown.o(.ARM.Collect$$libshutdown$$00000000) refers (Special) to libshutdown2.o(.ARM.Collect$$libshutdown$$00000003) for __rt_lib_shutdown_stdio_1
    libshutdown.o(.ARM.Collect$$libshutdown$$00000000) refers (Special) to libshutdown2.o(.ARM.Collect$$libshutdown$$0000000B) for __rt_lib_shutdown_user_alloc_1
    sys_command.o(.text) refers (Special) to use_no_semi.o(.text) for __I$use$semihosting
    sys_command.o(.text) refers (Special) to indicate_semi.o(.text) for __semihosting_library_function
    defsig_rtmem_outer.o(.text) refers to defsig_rtmem_inner.o(.text) for __rt_SIGRTMEM_inner
    defsig_rtmem_outer.o(.text) refers to defsig_exit.o(.text) for __sig_exit
    defsig_rtmem_formal.o(.text) refers to rt_raise.o(.text) for __rt_raise
    rt_raise.o(.text) refers to __raise.o(.text) for __raise
    rt_raise.o(.text) refers to sys_exit.o(.text) for _sys_exit
    defsig_exit.o(.text) refers to sys_exit.o(.text) for _sys_exit
    defsig_rtmem_inner.o(.text) refers to defsig_general.o(.text) for __default_signal_display
    __raise.o(.text) refers to defsig.o(CL$$defsig) for __default_signal_handler
    defsig_general.o(.text) refers to sys_wrch.o(.text) for _ttywrch
    sys_wrch.o(.text) refers (Special) to use_no_semi.o(.text) for __I$use$semihosting
    sys_wrch.o(.text) refers (Special) to indicate_semi.o(.text) for __semihosting_library_function
    defsig.o(CL$$defsig) refers to defsig_rtmem_inner.o(.text) for __rt_SIGRTMEM_inner
    defsig_abrt_inner.o(.text) refers to defsig_general.o(.text) for __default_signal_display
    defsig_fpe_inner.o(.text) refers to defsig_general.o(.text) for __default_signal_display
    defsig_rtred_inner.o(.text) refers to defsig_general.o(.text) for __default_signal_display
    defsig_stak_inner.o(.text) refers to defsig_general.o(.text) for __default_signal_display
    defsig_pvfn_inner.o(.text) refers to defsig_general.o(.text) for __default_signal_display
    defsig_cppl_inner.o(.text) refers to defsig_general.o(.text) for __default_signal_display
    defsig_segv_inner.o(.text) refers to defsig_general.o(.text) for __default_signal_display
    defsig_other.o(.text) refers to defsig_general.o(.text) for __default_signal_display


==============================================================================

Removing Unused input sections from the image.

    Removing system_stm32f4xx.o(.rev16_text), (4 bytes).
    Removing system_stm32f4xx.o(.revsh_text), (4 bytes).
    Removing system_stm32f4xx.o(.rrx_text), (6 bytes).
    Removing system_stm32f4xx.o(i.SystemCoreClockUpdate), (116 bytes).
    Removing main.o(.rev16_text), (4 bytes).
    Removing main.o(.revsh_text), (4 bytes).
    Removing main.o(.rrx_text), (6 bytes).
    Removing main.o(i.Delay), (6 bytes).
    Removing main.o(i.GPS_ReadParametersFromFlash), (144 bytes).
    Removing main.o(i.GPS_SaveManual), (212 bytes).
    Removing main.o(i.PID_SaveManual), (256 bytes).
    Removing stm32f4xx_it.o(.rev16_text), (4 bytes).
    Removing stm32f4xx_it.o(.revsh_text), (4 bytes).
    Removing stm32f4xx_it.o(.rrx_text), (6 bytes).
    Removing encoder.o(.rev16_text), (4 bytes).
    Removing encoder.o(.revsh_text), (4 bytes).
    Removing encoder.o(.rrx_text), (6 bytes).
    Removing stm32f4xx_delay.o(.rev16_text), (4 bytes).
    Removing stm32f4xx_delay.o(.revsh_text), (4 bytes).
    Removing stm32f4xx_delay.o(.rrx_text), (6 bytes).
    Removing stm32f4xx_delay.o(i.Core_Delay), (6 bytes).
    Removing stm32f4xx_delay.o(i.TIM16_Delay_MS), (88 bytes).
    Removing stm32f4xx_delay.o(i.TIM16_Delay_US), (52 bytes).
    Removing usart_dma_config.o(.rev16_text), (4 bytes).
    Removing usart_dma_config.o(.revsh_text), (4 bytes).
    Removing usart_dma_config.o(.rrx_text), (6 bytes).
    Removing usart_dma_config.o(i.ToStringData), (18 bytes).
    Removing usart_dma_config.o(i.U2_SendData), (44 bytes).
    Removing functions.o(.rev16_text), (4 bytes).
    Removing functions.o(.revsh_text), (4 bytes).
    Removing functions.o(.rrx_text), (6 bytes).
    Removing functions.o(i.GPS_GetCoordinateMessage), (92 bytes).
    Removing functions.o(i.GPS_GetQualityFromString), (96 bytes).
    Removing functions.o(i.IMU_GetCommandMessage), (28 bytes).
    Removing functions.o(i.LedTest), (52 bytes).
    Removing functions.o(i.LengthOfIMULine), (16 bytes).
    Removing functions.o(i.Readline), (36 bytes).
    Removing functions.o(i.SelectFuzzyOutput), (780 bytes).
    Removing functions.o(i.ToDegree), (52 bytes).
    Removing functions.o(i.ToRadian), (52 bytes).
    Removing functions.o(i.Trapf_Update), (6 bytes).
    Removing functions.o(i.Trimf_Update), (6 bytes).
    Removing functions.o(.bss), (88 bytes).
    Removing e_compass.o(.rev16_text), (4 bytes).
    Removing e_compass.o(.revsh_text), (4 bytes).
    Removing e_compass.o(.rrx_text), (6 bytes).
    Removing e_compass.o(i.Acc_AngleCalculate), (2 bytes).
    Removing e_compass.o(i.Acc_Calibration), (40 bytes).
    Removing e_compass.o(i.CalculateDirection), (380 bytes).
    Removing e_compass.o(i.ECompass_Config), (40 bytes).
    Removing e_compass.o(i.GetAngle), (188 bytes).
    Removing e_compass.o(i.GetAngle_LSM303DLHC), (420 bytes).
    Removing e_compass.o(i.I2C_ECompass_Config), (140 bytes).
    Removing e_compass.o(i.I2C_Start_Receive), (96 bytes).
    Removing e_compass.o(i.I2C_Start_Transmit), (100 bytes).
    Removing e_compass.o(i.Read3AxisAccelerometer), (336 bytes).
    Removing e_compass.o(i.Read3AxisMagnetometer), (284 bytes).
    Removing e_compass.o(i.ReadFromSensor), (184 bytes).
    Removing e_compass.o(i.SRF05_Config), (2 bytes).
    Removing e_compass.o(i.ScaleAngle), (84 bytes).
    Removing e_compass.o(i.WriteToSensor), (160 bytes).
    Removing e_compass.o(.bss), (16 bytes).
    Removing e_compass.o(.data), (8 bytes).
    Removing srf05.o(.rev16_text), (4 bytes).
    Removing srf05.o(.revsh_text), (4 bytes).
    Removing srf05.o(.rrx_text), (6 bytes).
    Removing srf05.o(i.Srf05_ResetCounter), (6 bytes).
    Removing stm32f411_rccenable.o(.rev16_text), (4 bytes).
    Removing stm32f411_rccenable.o(.revsh_text), (4 bytes).
    Removing stm32f411_rccenable.o(.rrx_text), (6 bytes).
    Removing stm32f411_rccenable.o(i.RCC_DMAxClockCmd), (36 bytes).
    Removing stm32f411_rccenable.o(i.RCC_I2CxClockCmd), (52 bytes).
    Removing stm32f411_rccenable.o(i.RCC_USARTxClockCmd), (52 bytes).
    Removing twowheelrobot.o(i.OverWritePosition), (6 bytes).
    Removing twowheelrobot.o(i.SelfPositionUpdateParams), (184 bytes).
    Removing twowheelrobot.o(.data), (4 bytes).
    Removing misc.o(.rev16_text), (4 bytes).
    Removing misc.o(.revsh_text), (4 bytes).
    Removing misc.o(.rrx_text), (6 bytes).
    Removing misc.o(i.NVIC_SetVectorTable), (20 bytes).
    Removing misc.o(i.NVIC_SystemLPConfig), (24 bytes).
    Removing misc.o(i.SysTick_CLKSourceConfig), (24 bytes).
    Removing stm32f4xx_usart.o(.rev16_text), (4 bytes).
    Removing stm32f4xx_usart.o(.revsh_text), (4 bytes).
    Removing stm32f4xx_usart.o(.rrx_text), (6 bytes).
    Removing stm32f4xx_usart.o(i.USART_ClearITPendingBit), (12 bytes).
    Removing stm32f4xx_usart.o(i.USART_ClockInit), (28 bytes).
    Removing stm32f4xx_usart.o(i.USART_ClockStructInit), (12 bytes).
    Removing stm32f4xx_usart.o(i.USART_DeInit), (172 bytes).
    Removing stm32f4xx_usart.o(i.USART_GetFlagStatus), (14 bytes).
    Removing stm32f4xx_usart.o(i.USART_HalfDuplexCmd), (20 bytes).
    Removing stm32f4xx_usart.o(i.USART_IrDACmd), (20 bytes).
    Removing stm32f4xx_usart.o(i.USART_IrDAConfig), (16 bytes).
    Removing stm32f4xx_usart.o(i.USART_LINBreakDetectLengthConfig), (16 bytes).
    Removing stm32f4xx_usart.o(i.USART_LINCmd), (20 bytes).
    Removing stm32f4xx_usart.o(i.USART_OneBitMethodCmd), (20 bytes).
    Removing stm32f4xx_usart.o(i.USART_OverSampling8Cmd), (20 bytes).
    Removing stm32f4xx_usart.o(i.USART_ReceiverWakeUpCmd), (20 bytes).
    Removing stm32f4xx_usart.o(i.USART_SendBreak), (10 bytes).
    Removing stm32f4xx_usart.o(i.USART_SendData), (8 bytes).
    Removing stm32f4xx_usart.o(i.USART_SetAddress), (16 bytes).
    Removing stm32f4xx_usart.o(i.USART_SetGuardTime), (16 bytes).
    Removing stm32f4xx_usart.o(i.USART_SetPrescaler), (16 bytes).
    Removing stm32f4xx_usart.o(i.USART_SmartCardCmd), (20 bytes).
    Removing stm32f4xx_usart.o(i.USART_SmartCardNACKCmd), (20 bytes).
    Removing stm32f4xx_usart.o(i.USART_StructInit), (22 bytes).
    Removing stm32f4xx_usart.o(i.USART_WakeUpConfig), (16 bytes).
    Removing stm32f4xx_dma.o(.rev16_text), (4 bytes).
    Removing stm32f4xx_dma.o(.revsh_text), (4 bytes).
    Removing stm32f4xx_dma.o(.rrx_text), (6 bytes).
    Removing stm32f4xx_dma.o(i.DMA_DeInit), (292 bytes).
    Removing stm32f4xx_dma.o(i.DMA_DoubleBufferModeCmd), (20 bytes).
    Removing stm32f4xx_dma.o(i.DMA_DoubleBufferModeConfig), (22 bytes).
    Removing stm32f4xx_dma.o(i.DMA_FlowControllerConfig), (20 bytes).
    Removing stm32f4xx_dma.o(i.DMA_GetCmdStatus), (14 bytes).
    Removing stm32f4xx_dma.o(i.DMA_GetCurrDataCounter), (6 bytes).
    Removing stm32f4xx_dma.o(i.DMA_GetCurrentMemoryTarget), (14 bytes).
    Removing stm32f4xx_dma.o(i.DMA_GetFIFOStatus), (8 bytes).
    Removing stm32f4xx_dma.o(i.DMA_GetITStatus), (84 bytes).
    Removing stm32f4xx_dma.o(i.DMA_MemoryTargetConfig), (10 bytes).
    Removing stm32f4xx_dma.o(i.DMA_PeriphIncOffsetSizeConfig), (20 bytes).
    Removing stm32f4xx_dma.o(i.DMA_SetCurrDataCounter), (4 bytes).
    Removing stm32f4xx_dma.o(i.DMA_StructInit), (34 bytes).
    Removing stm32f4xx_gpio.o(.rev16_text), (4 bytes).
    Removing stm32f4xx_gpio.o(.revsh_text), (4 bytes).
    Removing stm32f4xx_gpio.o(.rrx_text), (6 bytes).
    Removing stm32f4xx_gpio.o(i.GPIO_DeInit), (260 bytes).
    Removing stm32f4xx_gpio.o(i.GPIO_PinLockConfig), (24 bytes).
    Removing stm32f4xx_gpio.o(i.GPIO_ReadInputData), (6 bytes).
    Removing stm32f4xx_gpio.o(i.GPIO_ReadOutputData), (6 bytes).
    Removing stm32f4xx_gpio.o(i.GPIO_StructInit), (18 bytes).
    Removing stm32f4xx_gpio.o(i.GPIO_ToggleBits), (8 bytes).
    Removing stm32f4xx_gpio.o(i.GPIO_Write), (4 bytes).
    Removing stm32f4xx_gpio.o(i.GPIO_WriteBit), (10 bytes).
    Removing stm32f4xx_i2c.o(.rev16_text), (4 bytes).
    Removing stm32f4xx_i2c.o(.revsh_text), (4 bytes).
    Removing stm32f4xx_i2c.o(.rrx_text), (6 bytes).
    Removing stm32f4xx_i2c.o(i.I2C_ARPCmd), (20 bytes).
    Removing stm32f4xx_i2c.o(i.I2C_AcknowledgeConfig), (20 bytes).
    Removing stm32f4xx_i2c.o(i.I2C_AnalogFilterCmd), (20 bytes).
    Removing stm32f4xx_i2c.o(i.I2C_CalculatePEC), (20 bytes).
    Removing stm32f4xx_i2c.o(i.I2C_CheckEvent), (24 bytes).
    Removing stm32f4xx_i2c.o(i.I2C_ClearFlag), (6 bytes).
    Removing stm32f4xx_i2c.o(i.I2C_ClearITPendingBit), (6 bytes).
    Removing stm32f4xx_i2c.o(i.I2C_Cmd), (20 bytes).
    Removing stm32f4xx_i2c.o(i.I2C_DMACmd), (20 bytes).
    Removing stm32f4xx_i2c.o(i.I2C_DMALastTransferCmd), (20 bytes).
    Removing stm32f4xx_i2c.o(i.I2C_DeInit), (68 bytes).
    Removing stm32f4xx_i2c.o(i.I2C_DigitalFilterConfig), (16 bytes).
    Removing stm32f4xx_i2c.o(i.I2C_DualAddressCmd), (20 bytes).
    Removing stm32f4xx_i2c.o(i.I2C_FastModeDutyCycleConfig), (22 bytes).
    Removing stm32f4xx_i2c.o(i.I2C_GeneralCallCmd), (20 bytes).
    Removing stm32f4xx_i2c.o(i.I2C_GenerateSTART), (20 bytes).
    Removing stm32f4xx_i2c.o(i.I2C_GenerateSTOP), (20 bytes).
    Removing stm32f4xx_i2c.o(i.I2C_GetFlagStatus), (42 bytes).
    Removing stm32f4xx_i2c.o(i.I2C_GetITStatus), (36 bytes).
    Removing stm32f4xx_i2c.o(i.I2C_GetLastEvent), (14 bytes).
    Removing stm32f4xx_i2c.o(i.I2C_GetPEC), (6 bytes).
    Removing stm32f4xx_i2c.o(i.I2C_ITConfig), (16 bytes).
    Removing stm32f4xx_i2c.o(i.I2C_Init), (184 bytes).
    Removing stm32f4xx_i2c.o(i.I2C_NACKPositionConfig), (22 bytes).
    Removing stm32f4xx_i2c.o(i.I2C_OwnAddress2Config), (16 bytes).
    Removing stm32f4xx_i2c.o(i.I2C_PECPositionConfig), (22 bytes).
    Removing stm32f4xx_i2c.o(i.I2C_ReadRegister), (10 bytes).
    Removing stm32f4xx_i2c.o(i.I2C_ReceiveData), (6 bytes).
    Removing stm32f4xx_i2c.o(i.I2C_SMBusAlertConfig), (22 bytes).
    Removing stm32f4xx_i2c.o(i.I2C_Send7bitAddress), (16 bytes).
    Removing stm32f4xx_i2c.o(i.I2C_SendData), (4 bytes).
    Removing stm32f4xx_i2c.o(i.I2C_SoftwareResetCmd), (20 bytes).
    Removing stm32f4xx_i2c.o(i.I2C_StretchClockCmd), (20 bytes).
    Removing stm32f4xx_i2c.o(i.I2C_StructInit), (28 bytes).
    Removing stm32f4xx_i2c.o(i.I2C_TransmitPEC), (20 bytes).
    Removing stm32f4xx_rcc.o(.rev16_text), (4 bytes).
    Removing stm32f4xx_rcc.o(.revsh_text), (4 bytes).
    Removing stm32f4xx_rcc.o(.rrx_text), (6 bytes).
    Removing stm32f4xx_rcc.o(i.RCC_AHB1PeriphClockLPModeCmd), (24 bytes).
    Removing stm32f4xx_rcc.o(i.RCC_AHB1PeriphResetCmd), (24 bytes).
    Removing stm32f4xx_rcc.o(i.RCC_AHB2PeriphClockCmd), (24 bytes).
    Removing stm32f4xx_rcc.o(i.RCC_AHB2PeriphClockLPModeCmd), (24 bytes).
    Removing stm32f4xx_rcc.o(i.RCC_AHB2PeriphResetCmd), (24 bytes).
    Removing stm32f4xx_rcc.o(i.RCC_APB1PeriphClockLPModeCmd), (24 bytes).
    Removing stm32f4xx_rcc.o(i.RCC_APB1PeriphResetCmd), (24 bytes).
    Removing stm32f4xx_rcc.o(i.RCC_APB2PeriphClockLPModeCmd), (24 bytes).
    Removing stm32f4xx_rcc.o(i.RCC_APB2PeriphResetCmd), (24 bytes).
    Removing stm32f4xx_rcc.o(i.RCC_AdjustHSICalibrationValue), (20 bytes).
    Removing stm32f4xx_rcc.o(i.RCC_BackupResetCmd), (12 bytes).
    Removing stm32f4xx_rcc.o(i.RCC_ClearFlag), (16 bytes).
    Removing stm32f4xx_rcc.o(i.RCC_ClearITPendingBit), (12 bytes).
    Removing stm32f4xx_rcc.o(i.RCC_ClockSecuritySystemCmd), (12 bytes).
    Removing stm32f4xx_rcc.o(i.RCC_DeInit), (80 bytes).
    Removing stm32f4xx_rcc.o(i.RCC_GetFlagStatus), (52 bytes).
    Removing stm32f4xx_rcc.o(i.RCC_GetITStatus), (20 bytes).
    Removing stm32f4xx_rcc.o(i.RCC_GetSYSCLKSource), (16 bytes).
    Removing stm32f4xx_rcc.o(i.RCC_HCLKConfig), (20 bytes).
    Removing stm32f4xx_rcc.o(i.RCC_HSEConfig), (16 bytes).
    Removing stm32f4xx_rcc.o(i.RCC_HSICmd), (12 bytes).
    Removing stm32f4xx_rcc.o(i.RCC_I2SCLKConfig), (12 bytes).
    Removing stm32f4xx_rcc.o(i.RCC_ITConfig), (24 bytes).
    Removing stm32f4xx_rcc.o(i.RCC_LSEConfig), (28 bytes).
    Removing stm32f4xx_rcc.o(i.RCC_LSEModeConfig), (28 bytes).
    Removing stm32f4xx_rcc.o(i.RCC_LSICmd), (12 bytes).
    Removing stm32f4xx_rcc.o(i.RCC_LTDCCLKDivConfig), (20 bytes).
    Removing stm32f4xx_rcc.o(i.RCC_MCO1Config), (20 bytes).
    Removing stm32f4xx_rcc.o(i.RCC_MCO2Config), (20 bytes).
    Removing stm32f4xx_rcc.o(i.RCC_PCLK1Config), (20 bytes).
    Removing stm32f4xx_rcc.o(i.RCC_PCLK2Config), (20 bytes).
    Removing stm32f4xx_rcc.o(i.RCC_PLLCmd), (12 bytes).
    Removing stm32f4xx_rcc.o(i.RCC_PLLConfig), (40 bytes).
    Removing stm32f4xx_rcc.o(i.RCC_PLLI2SCmd), (12 bytes).
    Removing stm32f4xx_rcc.o(i.RCC_PLLI2SConfig), (20 bytes).
    Removing stm32f4xx_rcc.o(i.RCC_PLLSAICmd), (12 bytes).
    Removing stm32f4xx_rcc.o(i.RCC_PLLSAIConfig), (20 bytes).
    Removing stm32f4xx_rcc.o(i.RCC_RTCCLKCmd), (12 bytes).
    Removing stm32f4xx_rcc.o(i.RCC_RTCCLKConfig), (48 bytes).
    Removing stm32f4xx_rcc.o(i.RCC_SAIPLLI2SClkDivConfig), (20 bytes).
    Removing stm32f4xx_rcc.o(i.RCC_SAIPLLSAIClkDivConfig), (28 bytes).
    Removing stm32f4xx_rcc.o(i.RCC_SYSCLKConfig), (20 bytes).
    Removing stm32f4xx_rcc.o(i.RCC_TIMCLKPresConfig), (12 bytes).
    Removing stm32f4xx_rcc.o(i.RCC_WaitForHSEStartUp), (44 bytes).
    Removing stm32f4xx_tim.o(.rev16_text), (4 bytes).
    Removing stm32f4xx_tim.o(.revsh_text), (4 bytes).
    Removing stm32f4xx_tim.o(.rrx_text), (6 bytes).
    Removing stm32f4xx_tim.o(i.TIM_BDTRConfig), (34 bytes).
    Removing stm32f4xx_tim.o(i.TIM_BDTRStructInit), (18 bytes).
    Removing stm32f4xx_tim.o(i.TIM_CCPreloadControl), (20 bytes).
    Removing stm32f4xx_tim.o(i.TIM_CCxCmd), (22 bytes).
    Removing stm32f4xx_tim.o(i.TIM_CCxNCmd), (22 bytes).
    Removing stm32f4xx_tim.o(i.TIM_ClearFlag), (6 bytes).
    Removing stm32f4xx_tim.o(i.TIM_ClearOC1Ref), (12 bytes).
    Removing stm32f4xx_tim.o(i.TIM_ClearOC2Ref), (20 bytes).
    Removing stm32f4xx_tim.o(i.TIM_ClearOC3Ref), (12 bytes).
    Removing stm32f4xx_tim.o(i.TIM_ClearOC4Ref), (20 bytes).
    Removing stm32f4xx_tim.o(i.TIM_CounterModeConfig), (12 bytes).
    Removing stm32f4xx_tim.o(i.TIM_CtrlPWMOutputs), (22 bytes).
    Removing stm32f4xx_tim.o(i.TIM_DMACmd), (16 bytes).
    Removing stm32f4xx_tim.o(i.TIM_DMAConfig), (8 bytes).
    Removing stm32f4xx_tim.o(i.TIM_DeInit), (336 bytes).
    Removing stm32f4xx_tim.o(i.TIM_ETRClockMode1Config), (18 bytes).
    Removing stm32f4xx_tim.o(i.TIM_ETRClockMode2Config), (18 bytes).
    Removing stm32f4xx_tim.o(i.TIM_ETRConfig), (24 bytes).
    Removing stm32f4xx_tim.o(i.TIM_ForcedOC1Config), (12 bytes).
    Removing stm32f4xx_tim.o(i.TIM_ForcedOC2Config), (20 bytes).
    Removing stm32f4xx_tim.o(i.TIM_ForcedOC3Config), (12 bytes).
    Removing stm32f4xx_tim.o(i.TIM_ForcedOC4Config), (20 bytes).
    Removing stm32f4xx_tim.o(i.TIM_GenerateEvent), (4 bytes).
    Removing stm32f4xx_tim.o(i.TIM_GetCapture1), (4 bytes).
    Removing stm32f4xx_tim.o(i.TIM_GetCapture2), (4 bytes).
    Removing stm32f4xx_tim.o(i.TIM_GetITStatus), (24 bytes).
    Removing stm32f4xx_tim.o(i.TIM_GetPrescaler), (4 bytes).
    Removing stm32f4xx_tim.o(i.TIM_ICStructInit), (16 bytes).
    Removing stm32f4xx_tim.o(i.TIM_ITRxExternalClockConfig), (18 bytes).
    Removing stm32f4xx_tim.o(i.TIM_InternalClockConfig), (10 bytes).
    Removing stm32f4xx_tim.o(i.TIM_OC1FastConfig), (12 bytes).
    Removing stm32f4xx_tim.o(i.TIM_OC1NPolarityConfig), (12 bytes).
    Removing stm32f4xx_tim.o(i.TIM_OC1PolarityConfig), (12 bytes).
    Removing stm32f4xx_tim.o(i.TIM_OC2FastConfig), (20 bytes).
    Removing stm32f4xx_tim.o(i.TIM_OC2NPolarityConfig), (20 bytes).
    Removing stm32f4xx_tim.o(i.TIM_OC2PolarityConfig), (20 bytes).
    Removing stm32f4xx_tim.o(i.TIM_OC3FastConfig), (12 bytes).
    Removing stm32f4xx_tim.o(i.TIM_OC3Init), (124 bytes).
    Removing stm32f4xx_tim.o(i.TIM_OC3NPolarityConfig), (20 bytes).
    Removing stm32f4xx_tim.o(i.TIM_OC3PolarityConfig), (20 bytes).
    Removing stm32f4xx_tim.o(i.TIM_OC3PreloadConfig), (12 bytes).
    Removing stm32f4xx_tim.o(i.TIM_OC4FastConfig), (20 bytes).
    Removing stm32f4xx_tim.o(i.TIM_OC4Init), (96 bytes).
    Removing stm32f4xx_tim.o(i.TIM_OC4PolarityConfig), (20 bytes).
    Removing stm32f4xx_tim.o(i.TIM_OC4PreloadConfig), (20 bytes).
    Removing stm32f4xx_tim.o(i.TIM_OCStructInit), (20 bytes).
    Removing stm32f4xx_tim.o(i.TIM_PWMIConfig), (108 bytes).
    Removing stm32f4xx_tim.o(i.TIM_PrescalerConfig), (6 bytes).
    Removing stm32f4xx_tim.o(i.TIM_RemapConfig), (6 bytes).
    Removing stm32f4xx_tim.o(i.TIM_SelectCCDMA), (20 bytes).
    Removing stm32f4xx_tim.o(i.TIM_SelectCOM), (20 bytes).
    Removing stm32f4xx_tim.o(i.TIM_SelectHallSensor), (20 bytes).
    Removing stm32f4xx_tim.o(i.TIM_SelectInputTrigger), (12 bytes).
    Removing stm32f4xx_tim.o(i.TIM_SelectMasterSlaveMode), (16 bytes).
    Removing stm32f4xx_tim.o(i.TIM_SelectOCxM), (74 bytes).
    Removing stm32f4xx_tim.o(i.TIM_SelectOnePulseMode), (16 bytes).
    Removing stm32f4xx_tim.o(i.TIM_SelectOutputTrigger), (16 bytes).
    Removing stm32f4xx_tim.o(i.TIM_SelectSlaveMode), (16 bytes).
    Removing stm32f4xx_tim.o(i.TIM_SetAutoreload), (4 bytes).
    Removing stm32f4xx_tim.o(i.TIM_SetClockDivision), (16 bytes).
    Removing stm32f4xx_tim.o(i.TIM_SetCompare1), (4 bytes).
    Removing stm32f4xx_tim.o(i.TIM_SetCompare2), (4 bytes).
    Removing stm32f4xx_tim.o(i.TIM_SetCompare3), (4 bytes).
    Removing stm32f4xx_tim.o(i.TIM_SetCompare4), (4 bytes).
    Removing stm32f4xx_tim.o(i.TIM_SetCounter), (4 bytes).
    Removing stm32f4xx_tim.o(i.TIM_TIxExternalClockConfig), (46 bytes).
    Removing stm32f4xx_tim.o(i.TIM_TimeBaseStructInit), (18 bytes).
    Removing stm32f4xx_tim.o(i.TIM_UpdateDisableConfig), (20 bytes).
    Removing stm32f4xx_tim.o(i.TIM_UpdateRequestConfig), (20 bytes).
    Removing stm32f4xx_flash.o(.rev16_text), (4 bytes).
    Removing stm32f4xx_flash.o(.revsh_text), (4 bytes).
    Removing stm32f4xx_flash.o(.rrx_text), (6 bytes).
    Removing stm32f4xx_flash.o(i.FLASH_ClearFlag), (12 bytes).
    Removing stm32f4xx_flash.o(i.FLASH_DataCacheCmd), (28 bytes).
    Removing stm32f4xx_flash.o(i.FLASH_DataCacheReset), (16 bytes).
    Removing stm32f4xx_flash.o(i.FLASH_EraseAllBank1Sectors), (92 bytes).
    Removing stm32f4xx_flash.o(i.FLASH_EraseAllBank2Sectors), (92 bytes).
    Removing stm32f4xx_flash.o(i.FLASH_EraseAllSectors), (92 bytes).
    Removing stm32f4xx_flash.o(i.FLASH_GetFlagStatus), (20 bytes).
    Removing stm32f4xx_flash.o(i.FLASH_ITConfig), (24 bytes).
    Removing stm32f4xx_flash.o(i.FLASH_InstructionCacheCmd), (28 bytes).
    Removing stm32f4xx_flash.o(i.FLASH_InstructionCacheReset), (16 bytes).
    Removing stm32f4xx_flash.o(i.FLASH_OB_BORConfig), (24 bytes).
    Removing stm32f4xx_flash.o(i.FLASH_OB_BootConfig), (24 bytes).
    Removing stm32f4xx_flash.o(i.FLASH_OB_GetBOR), (16 bytes).
    Removing stm32f4xx_flash.o(i.FLASH_OB_GetPCROP), (12 bytes).
    Removing stm32f4xx_flash.o(i.FLASH_OB_GetPCROP1), (12 bytes).
    Removing stm32f4xx_flash.o(i.FLASH_OB_GetRDP), (20 bytes).
    Removing stm32f4xx_flash.o(i.FLASH_OB_GetUser), (16 bytes).
    Removing stm32f4xx_flash.o(i.FLASH_OB_GetWRP), (12 bytes).
    Removing stm32f4xx_flash.o(i.FLASH_OB_GetWRP1), (12 bytes).
    Removing stm32f4xx_flash.o(i.FLASH_OB_Launch), (20 bytes).
    Removing stm32f4xx_flash.o(i.FLASH_OB_Lock), (16 bytes).
    Removing stm32f4xx_flash.o(i.FLASH_OB_PCROP1Config), (36 bytes).
    Removing stm32f4xx_flash.o(i.FLASH_OB_PCROPConfig), (36 bytes).
    Removing stm32f4xx_flash.o(i.FLASH_OB_PCROPSelectionConfig), (20 bytes).
    Removing stm32f4xx_flash.o(i.FLASH_OB_RDPConfig), (24 bytes).
    Removing stm32f4xx_flash.o(i.FLASH_OB_Unlock), (36 bytes).
    Removing stm32f4xx_flash.o(i.FLASH_OB_UserConfig), (40 bytes).
    Removing stm32f4xx_flash.o(i.FLASH_OB_WRP1Config), (36 bytes).
    Removing stm32f4xx_flash.o(i.FLASH_OB_WRPConfig), (36 bytes).
    Removing stm32f4xx_flash.o(i.FLASH_PrefetchBufferCmd), (28 bytes).
    Removing stm32f4xx_flash.o(i.FLASH_ProgramByte), (56 bytes).
    Removing stm32f4xx_flash.o(i.FLASH_ProgramDoubleWord), (64 bytes).
    Removing stm32f4xx_flash.o(i.FLASH_ProgramHalfWord), (60 bytes).
    Removing stm32f4xx_flash.o(i.FLASH_SetLatency), (12 bytes).

328 unused section(s) (total 11488 bytes) removed from the image.

==============================================================================

Image Symbol Table

    Local Symbols

    Symbol Name                              Value     Ov Type        Size  Object(Section)

    ../clib/angel/boardlib.s                 0x00000000   Number         0  boardinit2.o ABSOLUTE
    ../clib/angel/boardlib.s                 0x00000000   Number         0  boardshut.o ABSOLUTE
    ../clib/angel/boardlib.s                 0x00000000   Number         0  boardinit1.o ABSOLUTE
    ../clib/angel/boardlib.s                 0x00000000   Number         0  boardinit3.o ABSOLUTE
    ../clib/angel/handlers.s                 0x00000000   Number         0  __scatter_zi.o ABSOLUTE
    ../clib/angel/handlers.s                 0x00000000   Number         0  __scatter_copy.o ABSOLUTE
    ../clib/angel/kernel.s                   0x00000000   Number         0  rtentry.o ABSOLUTE
    ../clib/angel/kernel.s                   0x00000000   Number         0  rtexit2.o ABSOLUTE
    ../clib/angel/kernel.s                   0x00000000   Number         0  rtexit.o ABSOLUTE
    ../clib/angel/kernel.s                   0x00000000   Number         0  rtentry2.o ABSOLUTE
    ../clib/angel/kernel.s                   0x00000000   Number         0  rtentry4.o ABSOLUTE
    ../clib/angel/rt.s                       0x00000000   Number         0  rt_errno_addr.o ABSOLUTE
    ../clib/angel/rt.s                       0x00000000   Number         0  rt_errno_addr_intlibspace.o ABSOLUTE
    ../clib/angel/rt.s                       0x00000000   Number         0  rt_raise.o ABSOLUTE
    ../clib/angel/scatter.s                  0x00000000   Number         0  __scatter.o ABSOLUTE
    ../clib/angel/startup.s                  0x00000000   Number         0  __main.o ABSOLUTE
    ../clib/angel/sys.s                      0x00000000   Number         0  use_no_semi.o ABSOLUTE
    ../clib/angel/sys.s                      0x00000000   Number         0  libspace.o ABSOLUTE
    ../clib/angel/sys.s                      0x00000000   Number         0  indicate_semi.o ABSOLUTE
    ../clib/angel/sys.s                      0x00000000   Number         0  sys_stackheap_outer.o ABSOLUTE
    ../clib/angel/sysapp.c                   0x00000000   Number         0  sys_command.o ABSOLUTE
    ../clib/angel/sysapp.c                   0x00000000   Number         0  sys_wrch.o ABSOLUTE
    ../clib/angel/sysapp.c                   0x00000000   Number         0  sys_exit.o ABSOLUTE
    ../clib/armsys.c                         0x00000000   Number         0  argv_veneer.o ABSOLUTE
    ../clib/armsys.c                         0x00000000   Number         0  _get_argv_nomalloc.o ABSOLUTE
    ../clib/armsys.c                         0x00000000   Number         0  argv_veneer.o ABSOLUTE
    ../clib/armsys.c                         0x00000000   Number         0  no_argv.o ABSOLUTE
    ../clib/fenv.c                           0x00000000   Number         0  _rserrno.o ABSOLUTE
    ../clib/heapalloc.c                      0x00000000   Number         0  hrguard.o ABSOLUTE
    ../clib/heapaux.c                        0x00000000   Number         0  heapauxi.o ABSOLUTE
    ../clib/libinit.s                        0x00000000   Number         0  libshutdown.o ABSOLUTE
    ../clib/libinit.s                        0x00000000   Number         0  libshutdown2.o ABSOLUTE
    ../clib/libinit.s                        0x00000000   Number         0  libinit.o ABSOLUTE
    ../clib/libinit.s                        0x00000000   Number         0  libinit2.o ABSOLUTE
    ../clib/signal.c                         0x00000000   Number         0  defsig_abrt_inner.o ABSOLUTE
    ../clib/signal.c                         0x00000000   Number         0  defsig_fpe_inner.o ABSOLUTE
    ../clib/signal.c                         0x00000000   Number         0  defsig_rtmem_inner.o ABSOLUTE
    ../clib/signal.c                         0x00000000   Number         0  __raise.o ABSOLUTE
    ../clib/signal.c                         0x00000000   Number         0  defsig_general.o ABSOLUTE
    ../clib/signal.c                         0x00000000   Number         0  defsig_exit.o ABSOLUTE
    ../clib/signal.c                         0x00000000   Number         0  defsig_rtmem_formal.o ABSOLUTE
    ../clib/signal.c                         0x00000000   Number         0  defsig_rtmem_outer.o ABSOLUTE
    ../clib/signal.c                         0x00000000   Number         0  defsig_rtred_inner.o ABSOLUTE
    ../clib/signal.c                         0x00000000   Number         0  defsig_other.o ABSOLUTE
    ../clib/signal.c                         0x00000000   Number         0  defsig_segv_inner.o ABSOLUTE
    ../clib/signal.c                         0x00000000   Number         0  defsig_cppl_inner.o ABSOLUTE
    ../clib/signal.c                         0x00000000   Number         0  defsig_pvfn_inner.o ABSOLUTE
    ../clib/signal.c                         0x00000000   Number         0  defsig_stak_inner.o ABSOLUTE
    ../clib/signal.s                         0x00000000   Number         0  defsig.o ABSOLUTE
    ../clib/stdlib.c                         0x00000000   Number         0  exit.o ABSOLUTE
    ../fplib/basic.s                         0x00000000   Number         0  basic.o ABSOLUTE
    ../fplib/d2f.s                           0x00000000   Number         0  d2f.o ABSOLUTE
    ../fplib/daddsub.s                       0x00000000   Number         0  daddsub_clz.o ABSOLUTE
    ../fplib/dcheck1.s                       0x00000000   Number         0  dcheck1.o ABSOLUTE
    ../fplib/dcmpi.s                         0x00000000   Number         0  dcmpi.o ABSOLUTE
    ../fplib/ddiv.s                          0x00000000   Number         0  ddiv.o ABSOLUTE
    ../fplib/deqf.s                          0x00000000   Number         0  deqf.o ABSOLUTE
    ../fplib/dfix.s                          0x00000000   Number         0  dfix.o ABSOLUTE
    ../fplib/dfixu.s                         0x00000000   Number         0  dfixu.o ABSOLUTE
    ../fplib/dflt.s                          0x00000000   Number         0  dflt_clz.o ABSOLUTE
    ../fplib/dleqf.s                         0x00000000   Number         0  dleqf.o ABSOLUTE
    ../fplib/dmul.s                          0x00000000   Number         0  dmul.o ABSOLUTE
    ../fplib/dnaninf.s                       0x00000000   Number         0  dnaninf.o ABSOLUTE
    ../fplib/dretinf.s                       0x00000000   Number         0  dretinf.o ABSOLUTE
    ../fplib/drleqf.s                        0x00000000   Number         0  drleqf.o ABSOLUTE
    ../fplib/dsqrt.s                         0x00000000   Number         0  dsqrt_umaal.o ABSOLUTE
    ../fplib/f2d.s                           0x00000000   Number         0  f2d.o ABSOLUTE
    ../fplib/fnaninf.s                       0x00000000   Number         0  fnaninf.o ABSOLUTE
    ../fplib/fpinit.s                        0x00000000   Number         0  fpinit.o ABSOLUTE
    ../fplib/fretinf.s                       0x00000000   Number         0  fretinf.o ABSOLUTE
    ../fplib/retnan.s                        0x00000000   Number         0  retnan.o ABSOLUTE
    ../fplib/scalbn.s                        0x00000000   Number         0  scalbn.o ABSOLUTE
    ../fplib/trapv.s                         0x00000000   Number         0  trapv.o ABSOLUTE
    ../fplib/usenofp.s                       0x00000000   Number         0  usenofp.o ABSOLUTE
    ../mathlib/atan.c                        0x00000000   Number         0  atan.o ABSOLUTE
    ../mathlib/atan.c                        0x00000000   Number         0  atan_x.o ABSOLUTE
    ../mathlib/atan2.c                       0x00000000   Number         0  atan2.o ABSOLUTE
    ../mathlib/atan2.c                       0x00000000   Number         0  atan2_x.o ABSOLUTE
    ../mathlib/cos.c                         0x00000000   Number         0  cos_x.o ABSOLUTE
    ../mathlib/cos.c                         0x00000000   Number         0  cos.o ABSOLUTE
    ../mathlib/cos_i.c                       0x00000000   Number         0  cos_i.o ABSOLUTE
    ../mathlib/dunder.c                      0x00000000   Number         0  dunder.o ABSOLUTE
    ../mathlib/fabs.c                        0x00000000   Number         0  fabs.o ABSOLUTE
    ../mathlib/fpclassify.c                  0x00000000   Number         0  fpclassify.o ABSOLUTE
    ../mathlib/log.c                         0x00000000   Number         0  log_x.o ABSOLUTE
    ../mathlib/log.c                         0x00000000   Number         0  log.o ABSOLUTE
    ../mathlib/poly.c                        0x00000000   Number         0  poly.o ABSOLUTE
    ../mathlib/pow.c                         0x00000000   Number         0  pow_x.o ABSOLUTE
    ../mathlib/pow.c                         0x00000000   Number         0  pow.o ABSOLUTE
    ../mathlib/qnan.c                        0x00000000   Number         0  qnan.o ABSOLUTE
    ../mathlib/rred.c                        0x00000000   Number         0  rred.o ABSOLUTE
    ../mathlib/sin.c                         0x00000000   Number         0  sin_x.o ABSOLUTE
    ../mathlib/sin.c                         0x00000000   Number         0  sin.o ABSOLUTE
    ../mathlib/sin_i.c                       0x00000000   Number         0  sin_i.o ABSOLUTE
    ../mathlib/sin_i.c                       0x00000000   Number         0  sin_i_x.o ABSOLUTE
    ../mathlib/sqrt.c                        0x00000000   Number         0  sqrt_x.o ABSOLUTE
    ../mathlib/sqrt.c                        0x00000000   Number         0  sqrt.o ABSOLUTE
    ../mathlib/tan.c                         0x00000000   Number         0  tan_x.o ABSOLUTE
    ../mathlib/tan.c                         0x00000000   Number         0  tan.o ABSOLUTE
    ../mathlib/tan_i.c                       0x00000000   Number         0  tan_i.o ABSOLUTE
    ../mathlib/tan_i.c                       0x00000000   Number         0  tan_i_x.o ABSOLUTE
    ..\..\..\Embeded_Project\MyStm_Lib\src\E_Compass.c 0x00000000   Number         0  e_compass.o ABSOLUTE
    ..\..\..\Embeded_Project\MyStm_Lib\src\Encoder.c 0x00000000   Number         0  encoder.o ABSOLUTE
    ..\..\..\Embeded_Project\MyStm_Lib\src\TwoWheelRobot.c 0x00000000   Number         0  twowheelrobot.o ABSOLUTE
    ..\..\..\Embeded_Project\MyStm_Lib\src\USART_DMA_Config.c 0x00000000   Number         0  usart_dma_config.o ABSOLUTE
    ..\..\..\Embeded_Project\MyStm_Lib\src\functions.c 0x00000000   Number         0  functions.o ABSOLUTE
    ..\..\..\Embeded_Project\MyStm_Lib\src\srf05.c 0x00000000   Number         0  srf05.o ABSOLUTE
    ..\..\..\Embeded_Project\MyStm_Lib\src\stm32f411_RCCEnable.c 0x00000000   Number         0  stm32f411_rccenable.o ABSOLUTE
    ..\..\..\Embeded_Project\MyStm_Lib\src\stm32f4xx_delay.c 0x00000000   Number         0  stm32f4xx_delay.o ABSOLUTE
    ..\Libraries\CMSIS\Device\ST\STM32F4xx\Source\Templates\arm\startup_stm32f411xe.s 0x00000000   Number         0  startup_stm32f411xe.o ABSOLUTE
    ..\Libraries\STM32F4xx_StdPeriph_Driver\src\misc.c 0x00000000   Number         0  misc.o ABSOLUTE
    ..\Libraries\STM32F4xx_StdPeriph_Driver\src\stm32f4xx_dma.c 0x00000000   Number         0  stm32f4xx_dma.o ABSOLUTE
    ..\Libraries\STM32F4xx_StdPeriph_Driver\src\stm32f4xx_flash.c 0x00000000   Number         0  stm32f4xx_flash.o ABSOLUTE
    ..\Libraries\STM32F4xx_StdPeriph_Driver\src\stm32f4xx_gpio.c 0x00000000   Number         0  stm32f4xx_gpio.o ABSOLUTE
    ..\Libraries\STM32F4xx_StdPeriph_Driver\src\stm32f4xx_i2c.c 0x00000000   Number         0  stm32f4xx_i2c.o ABSOLUTE
    ..\Libraries\STM32F4xx_StdPeriph_Driver\src\stm32f4xx_rcc.c 0x00000000   Number         0  stm32f4xx_rcc.o ABSOLUTE
    ..\Libraries\STM32F4xx_StdPeriph_Driver\src\stm32f4xx_tim.c 0x00000000   Number         0  stm32f4xx_tim.o ABSOLUTE
    ..\Libraries\STM32F4xx_StdPeriph_Driver\src\stm32f4xx_usart.c 0x00000000   Number         0  stm32f4xx_usart.o ABSOLUTE
    ..\\..\\..\\Embeded_Project\\MyStm_Lib\\src\\E_Compass.c 0x00000000   Number         0  e_compass.o ABSOLUTE
    ..\\..\\..\\Embeded_Project\\MyStm_Lib\\src\\Encoder.c 0x00000000   Number         0  encoder.o ABSOLUTE
    ..\\..\\..\\Embeded_Project\\MyStm_Lib\\src\\USART_DMA_Config.c 0x00000000   Number         0  usart_dma_config.o ABSOLUTE
    ..\\..\\..\\Embeded_Project\\MyStm_Lib\\src\\functions.c 0x00000000   Number         0  functions.o ABSOLUTE
    ..\\..\\..\\Embeded_Project\\MyStm_Lib\\src\\srf05.c 0x00000000   Number         0  srf05.o ABSOLUTE
    ..\\..\\..\\Embeded_Project\\MyStm_Lib\\src\\stm32f411_RCCEnable.c 0x00000000   Number         0  stm32f411_rccenable.o ABSOLUTE
    ..\\..\\..\\Embeded_Project\\MyStm_Lib\\src\\stm32f4xx_delay.c 0x00000000   Number         0  stm32f4xx_delay.o ABSOLUTE
    ..\\Libraries\\STM32F4xx_StdPeriph_Driver\\src\\misc.c 0x00000000   Number         0  misc.o ABSOLUTE
    ..\\Libraries\\STM32F4xx_StdPeriph_Driver\\src\\stm32f4xx_dma.c 0x00000000   Number         0  stm32f4xx_dma.o ABSOLUTE
    ..\\Libraries\\STM32F4xx_StdPeriph_Driver\\src\\stm32f4xx_flash.c 0x00000000   Number         0  stm32f4xx_flash.o ABSOLUTE
    ..\\Libraries\\STM32F4xx_StdPeriph_Driver\\src\\stm32f4xx_gpio.c 0x00000000   Number         0  stm32f4xx_gpio.o ABSOLUTE
    ..\\Libraries\\STM32F4xx_StdPeriph_Driver\\src\\stm32f4xx_i2c.c 0x00000000   Number         0  stm32f4xx_i2c.o ABSOLUTE
    ..\\Libraries\\STM32F4xx_StdPeriph_Driver\\src\\stm32f4xx_rcc.c 0x00000000   Number         0  stm32f4xx_rcc.o ABSOLUTE
    ..\\Libraries\\STM32F4xx_StdPeriph_Driver\\src\\stm32f4xx_tim.c 0x00000000   Number         0  stm32f4xx_tim.o ABSOLUTE
    ..\\Libraries\\STM32F4xx_StdPeriph_Driver\\src\\stm32f4xx_usart.c 0x00000000   Number         0  stm32f4xx_usart.o ABSOLUTE
    ..\\main.c                               0x00000000   Number         0  main.o ABSOLUTE
    ..\\stm32f4xx_it.c                       0x00000000   Number         0  stm32f4xx_it.o ABSOLUTE
    ..\\system_stm32f4xx.c                   0x00000000   Number         0  system_stm32f4xx.o ABSOLUTE
    ..\main.c                                0x00000000   Number         0  main.o ABSOLUTE
    ..\stm32f4xx_it.c                        0x00000000   Number         0  stm32f4xx_it.o ABSOLUTE
    ..\system_stm32f4xx.c                    0x00000000   Number         0  system_stm32f4xx.o ABSOLUTE
    dc.s                                     0x00000000   Number         0  dc.o ABSOLUTE
    RESET                                    0x08000000   Section      408  startup_stm32f411xe.o(RESET)
    !!!main                                  0x08000198   Section        8  __main.o(!!!main)
    !!!scatter                               0x080001a0   Section       52  __scatter.o(!!!scatter)
    !!handler_copy                           0x080001d4   Section       26  __scatter_copy.o(!!handler_copy)
    !!handler_zi                             0x080001f0   Section       28  __scatter_zi.o(!!handler_zi)
    .ARM.Collect$$libinit$$00000000          0x0800020c   Section        2  libinit.o(.ARM.Collect$$libinit$$00000000)
    .ARM.Collect$$libinit$$00000001          0x0800020e   Section        4  libinit2.o(.ARM.Collect$$libinit$$00000001)
    .ARM.Collect$$libinit$$00000008          0x08000212   Section        0  libinit2.o(.ARM.Collect$$libinit$$00000008)
    .ARM.Collect$$libinit$$0000000A          0x08000212   Section        0  libinit2.o(.ARM.Collect$$libinit$$0000000A)
    .ARM.Collect$$libinit$$0000000C          0x08000212   Section        0  libinit2.o(.ARM.Collect$$libinit$$0000000C)
    .ARM.Collect$$libinit$$0000000F          0x08000212   Section        0  libinit2.o(.ARM.Collect$$libinit$$0000000F)
    .ARM.Collect$$libinit$$00000011          0x08000212   Section        0  libinit2.o(.ARM.Collect$$libinit$$00000011)
    .ARM.Collect$$libinit$$00000013          0x08000212   Section        0  libinit2.o(.ARM.Collect$$libinit$$00000013)
    .ARM.Collect$$libinit$$00000015          0x08000212   Section        0  libinit2.o(.ARM.Collect$$libinit$$00000015)
    .ARM.Collect$$libinit$$00000017          0x08000212   Section        0  libinit2.o(.ARM.Collect$$libinit$$00000017)
    .ARM.Collect$$libinit$$00000019          0x08000212   Section        0  libinit2.o(.ARM.Collect$$libinit$$00000019)
    .ARM.Collect$$libinit$$0000001B          0x08000212   Section        0  libinit2.o(.ARM.Collect$$libinit$$0000001B)
    .ARM.Collect$$libinit$$0000001D          0x08000212   Section        0  libinit2.o(.ARM.Collect$$libinit$$0000001D)
    .ARM.Collect$$libinit$$0000001F          0x08000212   Section        0  libinit2.o(.ARM.Collect$$libinit$$0000001F)
    .ARM.Collect$$libinit$$00000021          0x08000212   Section        0  libinit2.o(.ARM.Collect$$libinit$$00000021)
    .ARM.Collect$$libinit$$00000023          0x08000212   Section        0  libinit2.o(.ARM.Collect$$libinit$$00000023)
    .ARM.Collect$$libinit$$0000002A          0x08000212   Section        0  libinit2.o(.ARM.Collect$$libinit$$0000002A)
    .ARM.Collect$$libinit$$0000002C          0x08000212   Section        0  libinit2.o(.ARM.Collect$$libinit$$0000002C)
    .ARM.Collect$$libinit$$0000002E          0x08000212   Section        0  libinit2.o(.ARM.Collect$$libinit$$0000002E)
    .ARM.Collect$$libinit$$00000030          0x08000212   Section        0  libinit2.o(.ARM.Collect$$libinit$$00000030)
    .ARM.Collect$$libinit$$00000031          0x08000212   Section        2  libinit2.o(.ARM.Collect$$libinit$$00000031)
    .ARM.Collect$$libshutdown$$00000000      0x08000214   Section        2  libshutdown.o(.ARM.Collect$$libshutdown$$00000000)
    .ARM.Collect$$libshutdown$$00000003      0x08000216   Section        0  libshutdown2.o(.ARM.Collect$$libshutdown$$00000003)
    .ARM.Collect$$libshutdown$$00000006      0x08000216   Section        0  libshutdown2.o(.ARM.Collect$$libshutdown$$00000006)
    .ARM.Collect$$libshutdown$$00000009      0x08000216   Section        0  libshutdown2.o(.ARM.Collect$$libshutdown$$00000009)
    .ARM.Collect$$libshutdown$$0000000B      0x08000216   Section        0  libshutdown2.o(.ARM.Collect$$libshutdown$$0000000B)
    .ARM.Collect$$libshutdown$$0000000E      0x08000216   Section        0  libshutdown2.o(.ARM.Collect$$libshutdown$$0000000E)
    .ARM.Collect$$libshutdown$$0000000F      0x08000216   Section        2  libshutdown2.o(.ARM.Collect$$libshutdown$$0000000F)
    .ARM.Collect$$rtentry$$00000000          0x08000218   Section        0  rtentry.o(.ARM.Collect$$rtentry$$00000000)
    .ARM.Collect$$rtentry$$00000002          0x08000218   Section        0  rtentry2.o(.ARM.Collect$$rtentry$$00000002)
    .ARM.Collect$$rtentry$$00000004          0x08000218   Section        6  rtentry4.o(.ARM.Collect$$rtentry$$00000004)
    .ARM.Collect$$rtentry$$00000009          0x0800021e   Section        0  rtentry2.o(.ARM.Collect$$rtentry$$00000009)
    .ARM.Collect$$rtentry$$0000000A          0x0800021e   Section        4  rtentry2.o(.ARM.Collect$$rtentry$$0000000A)
    .ARM.Collect$$rtentry$$0000000C          0x08000222   Section        0  rtentry2.o(.ARM.Collect$$rtentry$$0000000C)
    .ARM.Collect$$rtentry$$0000000D          0x08000222   Section        8  rtentry2.o(.ARM.Collect$$rtentry$$0000000D)
    .ARM.Collect$$rtexit$$00000000           0x0800022a   Section        2  rtexit.o(.ARM.Collect$$rtexit$$00000000)
    .ARM.Collect$$rtexit$$00000002           0x0800022c   Section        0  rtexit2.o(.ARM.Collect$$rtexit$$00000002)
    .ARM.Collect$$rtexit$$00000003           0x0800022c   Section        4  rtexit2.o(.ARM.Collect$$rtexit$$00000003)
    .ARM.Collect$$rtexit$$00000004           0x08000230   Section        6  rtexit2.o(.ARM.Collect$$rtexit$$00000004)
    .text                                    0x08000238   Section       64  startup_stm32f411xe.o(.text)
    $v0                                      0x08000238   Number         0  startup_stm32f411xe.o(.text)
    .text                                    0x08000278   Section        0  heapauxi.o(.text)
    .text                                    0x0800027e   Section        0  _rserrno.o(.text)
    .text                                    0x08000294   Section        8  rt_errno_addr_intlibspace.o(.text)
    .text                                    0x0800029c   Section        8  libspace.o(.text)
    .text                                    0x080002a4   Section       74  sys_stackheap_outer.o(.text)
    .text                                    0x080002ee   Section        0  exit.o(.text)
    .text                                    0x080002fc   Section        0  sys_exit.o(.text)
    .text                                    0x08000308   Section        2  use_no_semi.o(.text)
    .text                                    0x0800030a   Section        0  indicate_semi.o(.text)
    i.BusFault_Handler                       0x0800030a   Section        0  stm32f4xx_it.o(i.BusFault_Handler)
    i.Convert4BytesToWordData                0x0800030c   Section        0  functions.o(i.Convert4BytesToWordData)
    i.Core_Delay_Us                          0x0800034a   Section        0  srf05.o(i.Core_Delay_Us)
    i.DMA1_Stream5_IRQHandler                0x0800035c   Section        0  stm32f4xx_it.o(i.DMA1_Stream5_IRQHandler)
    i.DMA2_Stream2_IRQHandler                0x080003c0   Section        0  stm32f4xx_it.o(i.DMA2_Stream2_IRQHandler)
    i.DMA2_Stream5_IRQHandler                0x08000af8   Section        0  stm32f4xx_it.o(i.DMA2_Stream5_IRQHandler)
    i.DMA_ClearFlag                          0x08000b8c   Section        0  stm32f4xx_dma.o(i.DMA_ClearFlag)
    i.DMA_ClearITPendingBit                  0x08000bb8   Section        0  stm32f4xx_dma.o(i.DMA_ClearITPendingBit)
    i.DMA_Cmd                                0x08000be4   Section        0  stm32f4xx_dma.o(i.DMA_Cmd)
    i.DMA_GetFlagStatus                      0x08000bf8   Section        0  stm32f4xx_dma.o(i.DMA_GetFlagStatus)
    i.DMA_ITConfig                           0x08000c2c   Section        0  stm32f4xx_dma.o(i.DMA_ITConfig)
    i.DMA_Init                               0x08000c58   Section        0  stm32f4xx_dma.o(i.DMA_Init)
    i.DebugMon_Handler                       0x08000cac   Section        0  stm32f4xx_it.o(i.DebugMon_Handler)
    i.Defuzzification_Max_Min                0x08000cb0   Section        0  functions.o(i.Defuzzification_Max_Min)
    i.Degree_To_Degree                       0x08001140   Section        0  functions.o(i.Degree_To_Degree)
    i.DirPinConfig                           0x080011bc   Section        0  encoder.o(i.DirPinConfig)
    i.Encoder_Config                         0x080011f0   Section        0  encoder.o(i.Encoder_Config)
    i.EraseMemory                            0x0800120e   Section        0  functions.o(i.EraseMemory)
    i.Error_AppendError                      0x08001226   Section        0  functions.o(i.Error_AppendError)
    i.Error_ResetIndex                       0x08001230   Section        0  functions.o(i.Error_ResetIndex)
    i.FLASH_EraseSector                      0x08001238   Section        0  stm32f4xx_flash.o(i.FLASH_EraseSector)
    i.FLASH_GetStatus                        0x080012a4   Section        0  stm32f4xx_flash.o(i.FLASH_GetStatus)
    i.FLASH_Lock                             0x080012e0   Section        0  stm32f4xx_flash.o(i.FLASH_Lock)
    i.FLASH_ProgramWord                      0x080012f0   Section        0  stm32f4xx_flash.o(i.FLASH_ProgramWord)
    i.FLASH_Unlock                           0x0800132c   Section        0  stm32f4xx_flash.o(i.FLASH_Unlock)
    i.FLASH_WaitForLastOperation             0x08001350   Section        0  stm32f4xx_flash.o(i.FLASH_WaitForLastOperation)
    i.FeedBack                               0x0800136e   Section        0  functions.o(i.FeedBack)
    i.Fuzzy_Max                              0x08001398   Section        0  functions.o(i.Fuzzy_Max)
    i.Fuzzy_Min                              0x080013dc   Section        0  functions.o(i.Fuzzy_Min)
    i.Fuzzy_ParametersInit                   0x08001418   Section        0  functions.o(i.Fuzzy_ParametersInit)
    i.GPIO_Init                              0x080015e4   Section        0  stm32f4xx_gpio.o(i.GPIO_Init)
    i.GPIO_PinAFConfig                       0x08001686   Section        0  stm32f4xx_gpio.o(i.GPIO_PinAFConfig)
    i.GPIO_ReadInputDataBit                  0x080016a6   Section        0  stm32f4xx_gpio.o(i.GPIO_ReadInputDataBit)
    i.GPIO_ReadOutputDataBit                 0x080016b4   Section        0  stm32f4xx_gpio.o(i.GPIO_ReadOutputDataBit)
    i.GPIO_ResetBits                         0x080016c2   Section        0  stm32f4xx_gpio.o(i.GPIO_ResetBits)
    i.GPIO_SetBits                           0x080016c6   Section        0  stm32f4xx_gpio.o(i.GPIO_SetBits)
    i.GPS_ClearPathBuffer                    0x080016cc   Section        0  functions.o(i.GPS_ClearPathBuffer)
    i.GPS_GetLLQMessage                      0x08001714   Section        0  functions.o(i.GPS_GetLLQMessage)
    i.GPS_GetLatFromString                   0x0800185c   Section        0  functions.o(i.GPS_GetLatFromString)
    i.GPS_GetLonFromString                   0x08001908   Section        0  functions.o(i.GPS_GetLonFromString)
    i.GPS_HeaderCompare                      0x080019a4   Section        0  functions.o(i.GPS_HeaderCompare)
    i.GPS_LLToDegree                         0x080019c0   Section        0  functions.o(i.GPS_LLToDegree)
    i.GPS_LatLonToUTM                        0x08001a38   Section        0  functions.o(i.GPS_LatLonToUTM)
    i.GPS_ParametersInit                     0x08001fb4   Section        0  functions.o(i.GPS_ParametersInit)
    i.GPS_PathPlanning                       0x08002010   Section        0  functions.o(i.GPS_PathPlanning)
    i.GPS_SavePathCoordinateToFlash          0x0800216c   Section        0  functions.o(i.GPS_SavePathCoordinateToFlash)
    i.GPS_StanleyControl                     0x08002210   Section        0  functions.o(i.GPS_StanleyControl)
    i.GPS_UpdateParameters                   0x080025a8   Section        0  functions.o(i.GPS_UpdateParameters)
    i.GPS_UpdatePathCoordinate               0x080025b4   Section        0  functions.o(i.GPS_UpdatePathCoordinate)
    i.GPS_UpdatePathYaw                      0x0800262c   Section        0  functions.o(i.GPS_UpdatePathYaw)
    i.GetAFFromTIM                           0x080026b0   Section        0  stm32f411_rccenable.o(i.GetAFFromTIM)
    i.GetIRQHandlerFromTIMxCC                0x08002718   Section        0  stm32f411_rccenable.o(i.GetIRQHandlerFromTIMxCC)
    i.GetMessageInfo                         0x08002788   Section        0  functions.o(i.GetMessageInfo)
    i.GetNbOfReceiveHeader                   0x080027e8   Section        0  functions.o(i.GetNbOfReceiveHeader)
    i.GetPinSourceFromGPIOPin                0x080028c8   Section        0  stm32f411_rccenable.o(i.GetPinSourceFromGPIOPin)
    i.GetValueFromString                     0x08002958   Section        0  functions.o(i.GetValueFromString)
    i.GetVehicleVelocity                     0x08002ad4   Section        0  stm32f4xx_it.o(i.GetVehicleVelocity)
    i.HardFault_Handler                      0x08002bf8   Section        0  stm32f4xx_it.o(i.HardFault_Handler)
    i.IMU_GetValueFromMessage                0x08002bfc   Section        0  functions.o(i.IMU_GetValueFromMessage)
    i.IMU_ParametesInit                      0x08002c90   Section        0  functions.o(i.IMU_ParametesInit)
    i.IMU_UpdateFuzzyCoefficients            0x08002cb8   Section        0  functions.o(i.IMU_UpdateFuzzyCoefficients)
    i.IMU_UpdateFuzzyInput                   0x08002cc0   Section        0  functions.o(i.IMU_UpdateFuzzyInput)
    i.IMU_UpdatePreAngle                     0x08002da4   Section        0  functions.o(i.IMU_UpdatePreAngle)
    i.IMU_UpdateSetAngle                     0x08002dae   Section        0  functions.o(i.IMU_UpdateSetAngle)
    i.IsCorrectMessage                       0x08002dd0   Section        0  functions.o(i.IsCorrectMessage)
    i.IsDataTransferCompleted                0x08002e00   Section        0  functions.o(i.IsDataTransferCompleted)
    i.IsDouble                               0x08002e1c   Section        0  functions.o(i.IsDouble)
    i.IsValidData                            0x08002e60   Section        0  functions.o(i.IsValidData)
    i.LRCCalculate                           0x08002e6c   Section        0  functions.o(i.LRCCalculate)
    i.LengthOfLine                           0x08002e82   Section        0  functions.o(i.LengthOfLine)
    i.M1_Backward                            0x08002e9c   Section        0  encoder.o(i.M1_Backward)
    i.M1_Encoder_Config                      0x08002ea8   Section        0  encoder.o(i.M1_Encoder_Config)
    i.M1_Forward                             0x08002f5c   Section        0  encoder.o(i.M1_Forward)
    i.M2_Backward                            0x08002f68   Section        0  encoder.o(i.M2_Backward)
    i.M2_Encoder_Config                      0x08002f74   Section        0  encoder.o(i.M2_Encoder_Config)
    i.M2_Forward                             0x08003028   Section        0  encoder.o(i.M2_Forward)
    i.MemManage_Handler                      0x08003034   Section        0  stm32f4xx_it.o(i.MemManage_Handler)
    i.NMI_Handler                            0x08003036   Section        0  stm32f4xx_it.o(i.NMI_Handler)
    i.NVIC_Init                              0x08003038   Section        0  misc.o(i.NVIC_Init)
    i.NVIC_PriorityGroupConfig               0x0800309c   Section        0  misc.o(i.NVIC_PriorityGroupConfig)
    i.PID_Compute                            0x080030b0   Section        0  functions.o(i.PID_Compute)
    i.PID_ParametersInitial                  0x0800320c   Section        0  functions.o(i.PID_ParametersInitial)
    i.PID_ParametersUpdate                   0x08003240   Section        0  functions.o(i.PID_ParametersUpdate)
    i.PID_ReadParametersFromFlash            0x08003248   Section        0  main.o(i.PID_ReadParametersFromFlash)
    i.PID_ResetEncoder                       0x080032fc   Section        0  functions.o(i.PID_ResetEncoder)
    i.PID_ResetPID                           0x08003308   Section        0  functions.o(i.PID_ResetPID)
    i.PID_SavePIDParaToFlash                 0x08003324   Section        0  functions.o(i.PID_SavePIDParaToFlash)
    i.PID_UpdateEnc                          0x08003408   Section        0  functions.o(i.PID_UpdateEnc)
    i.PID_UpdateSetVel                       0x0800340c   Section        0  functions.o(i.PID_UpdateSetVel)
    i.PWM_Config                             0x08003414   Section        0  encoder.o(i.PWM_Config)
    i.Parameters_Init                        0x080034b8   Section        0  main.o(i.Parameters_Init)
    i.PendSV_Handler                         0x0800357c   Section        0  stm32f4xx_it.o(i.PendSV_Handler)
    i.Peripheral_Config                      0x08003580   Section        0  main.o(i.Peripheral_Config)
    i.Pi_To_Pi                               0x080035c4   Section        0  functions.o(i.Pi_To_Pi)
    i.RCC_AHB1PeriphClockCmd                 0x08003640   Section        0  stm32f4xx_rcc.o(i.RCC_AHB1PeriphClockCmd)
    i.RCC_APB1PeriphClockCmd                 0x08003658   Section        0  stm32f4xx_rcc.o(i.RCC_APB1PeriphClockCmd)
    i.RCC_APB2PeriphClockCmd                 0x08003670   Section        0  stm32f4xx_rcc.o(i.RCC_APB2PeriphClockCmd)
    i.RCC_GPIOxClockCmd                      0x08003688   Section        0  stm32f411_rccenable.o(i.RCC_GPIOxClockCmd)
    i.RCC_GetClocksFreq                      0x08003718   Section        0  stm32f4xx_rcc.o(i.RCC_GetClocksFreq)
    i.RCC_TIMxClockCmd                       0x080037ac   Section        0  stm32f411_rccenable.o(i.RCC_TIMxClockCmd)
    i.ReadFromFlash                          0x0800386c   Section        0  functions.o(i.ReadFromFlash)
    i.Reset_Motor                            0x080038a8   Section        0  stm32f4xx_it.o(i.Reset_Motor)
    i.Robot_AntiClockwise                    0x08003910   Section        0  encoder.o(i.Robot_AntiClockwise)
    i.Robot_Backward                         0x0800391e   Section        0  encoder.o(i.Robot_Backward)
    i.Robot_Clockwise                        0x0800392c   Section        0  encoder.o(i.Robot_Clockwise)
    i.Robot_Forward                          0x0800393a   Section        0  encoder.o(i.Robot_Forward)
    i.Robot_Run                              0x08003948   Section        0  encoder.o(i.Robot_Run)
    i.SVC_Handler                            0x080039d4   Section        0  stm32f4xx_it.o(i.SVC_Handler)
    i.SaveDataToInternalFlash                0x080039d8   Section        0  stm32f4xx_it.o(i.SaveDataToInternalFlash)
    i.Self_ParametersInit                    0x08003a0c   Section        0  twowheelrobot.o(i.Self_ParametersInit)
    i.SendData                               0x08003a48   Section        0  main.o(i.SendData)
    i.SendStatusData                         0x08003cb8   Section        0  main.o(i.SendStatusData)
    i.SetSysClock                            0x08003e74   Section        0  system_stm32f4xx.o(i.SetSysClock)
    SetSysClock                              0x08003e75   Thumb Code    98  system_stm32f4xx.o(i.SetSysClock)
    i.Srf05_BackEnd                          0x08003ee8   Section        0  main.o(i.Srf05_BackEnd)
    i.Srf05_ClearFlag                        0x08003f20   Section        0  srf05.o(i.Srf05_ClearFlag)
    i.Srf05_FirstInit                        0x08003f28   Section        0  srf05.o(i.Srf05_FirstInit)
    i.Srf05_Initial                          0x08003f40   Section        0  srf05.o(i.Srf05_Initial)
    i.Srf05_LeftFront                        0x08004014   Section        0  main.o(i.Srf05_LeftFront)
    i.Srf05_MidFront                         0x0800404c   Section        0  main.o(i.Srf05_MidFront)
    i.Srf05_RightFront                       0x08004084   Section        0  main.o(i.Srf05_RightFront)
    i.Srf05_SetFlag                          0x080040b8   Section        0  srf05.o(i.Srf05_SetFlag)
    i.Srf05_StartSensorBack                  0x080040c0   Section        0  main.o(i.Srf05_StartSensorBack)
    i.Srf05_StartSensorLeft                  0x080040f4   Section        0  main.o(i.Srf05_StartSensorLeft)
    i.Srf05_StartSensorMid                   0x08004128   Section        0  main.o(i.Srf05_StartSensorMid)
    i.Srf05_StartSensorRight                 0x0800415c   Section        0  main.o(i.Srf05_StartSensorRight)
    i.StartTimer                             0x08004190   Section        0  main.o(i.StartTimer)
    i.Status_CheckStatus                     0x080041cc   Section        0  functions.o(i.Status_CheckStatus)
    i.Status_ParametersInit                  0x080041d0   Section        0  functions.o(i.Status_ParametersInit)
    i.Status_UpdateStatus                    0x080041ec   Section        0  functions.o(i.Status_UpdateStatus)
    i.StopTimer                              0x080041f0   Section        0  main.o(i.StopTimer)
    i.Stop_Motor                             0x08004208   Section        0  encoder.o(i.Stop_Motor)
    i.StringHeaderCompare                    0x08004218   Section        0  functions.o(i.StringHeaderCompare)
    i.SysTick_Handler                        0x08004234   Section        0  stm32f4xx_it.o(i.SysTick_Handler)
    i.SystemInit                             0x080042ac   Section        0  system_stm32f4xx.o(i.SystemInit)
    i.TI1_Config                             0x08004308   Section        0  stm32f4xx_tim.o(i.TI1_Config)
    TI1_Config                               0x08004309   Thumb Code    46  stm32f4xx_tim.o(i.TI1_Config)
    i.TI2_Config                             0x08004336   Section        0  stm32f4xx_tim.o(i.TI2_Config)
    TI2_Config                               0x08004337   Thumb Code    54  stm32f4xx_tim.o(i.TI2_Config)
    i.TIM2_IRQHandler                        0x0800436c   Section        0  stm32f4xx_it.o(i.TIM2_IRQHandler)
    i.TIM3_IRQHandler                        0x080044f8   Section        0  stm32f4xx_it.o(i.TIM3_IRQHandler)
    i.TIM4_IRQHandler                        0x08004514   Section        0  stm32f4xx_it.o(i.TIM4_IRQHandler)
    i.TIM5_IRQHandler                        0x08004530   Section        0  main.o(i.TIM5_IRQHandler)
    i.TIM_ARRPreloadConfig                   0x08004570   Section        0  stm32f4xx_tim.o(i.TIM_ARRPreloadConfig)
    i.TIM_ClearITPendingBit                  0x08004584   Section        0  stm32f4xx_tim.o(i.TIM_ClearITPendingBit)
    i.TIM_Cmd                                0x0800458a   Section        0  stm32f4xx_tim.o(i.TIM_Cmd)
    i.TIM_EncoderInterfaceConfig             0x0800459e   Section        0  stm32f4xx_tim.o(i.TIM_EncoderInterfaceConfig)
    i.TIM_GetCapture3                        0x080045d0   Section        0  stm32f4xx_tim.o(i.TIM_GetCapture3)
    i.TIM_GetCapture4                        0x080045d4   Section        0  stm32f4xx_tim.o(i.TIM_GetCapture4)
    i.TIM_GetCounter                         0x080045d8   Section        0  stm32f4xx_tim.o(i.TIM_GetCounter)
    i.TIM_GetFlagStatus                      0x080045dc   Section        0  stm32f4xx_tim.o(i.TIM_GetFlagStatus)
    i.TIM_ICInit                             0x080045ea   Section        0  stm32f4xx_tim.o(i.TIM_ICInit)
    i.TIM_ITConfig                           0x08004696   Section        0  stm32f4xx_tim.o(i.TIM_ITConfig)
    i.TIM_OC1Init                            0x080046a8   Section        0  stm32f4xx_tim.o(i.TIM_OC1Init)
    i.TIM_OC1PreloadConfig                   0x08004708   Section        0  stm32f4xx_tim.o(i.TIM_OC1PreloadConfig)
    i.TIM_OC2Init                            0x08004714   Section        0  stm32f4xx_tim.o(i.TIM_OC2Init)
    i.TIM_OC2PreloadConfig                   0x08004794   Section        0  stm32f4xx_tim.o(i.TIM_OC2PreloadConfig)
    i.TIM_SetIC1Prescaler                    0x080047a8   Section        0  stm32f4xx_tim.o(i.TIM_SetIC1Prescaler)
    i.TIM_SetIC2Prescaler                    0x080047b8   Section        0  stm32f4xx_tim.o(i.TIM_SetIC2Prescaler)
    i.TIM_SetIC3Prescaler                    0x080047d0   Section        0  stm32f4xx_tim.o(i.TIM_SetIC3Prescaler)
    i.TIM_SetIC4Prescaler                    0x080047e0   Section        0  stm32f4xx_tim.o(i.TIM_SetIC4Prescaler)
    i.TIM_TimeBaseInit                       0x080047f8   Section        0  stm32f4xx_tim.o(i.TIM_TimeBaseInit)
    i.Time_GetSampleTime                     0x08004874   Section        0  functions.o(i.Time_GetSampleTime)
    i.Time_ParametersInit                    0x080048b8   Section        0  functions.o(i.Time_ParametersInit)
    i.Time_SampleTimeUpdate                  0x080048cc   Section        0  functions.o(i.Time_SampleTimeUpdate)
    i.Time_SendTimeUpdate                    0x080048d0   Section        0  functions.o(i.Time_SendTimeUpdate)
    i.TimerDelayConfig                       0x080048dc   Section        0  main.o(i.TimerDelayConfig)
    i.ToChar                                 0x08004924   Section        0  functions.o(i.ToChar)
    i.ToHex                                  0x08004a34   Section        0  functions.o(i.ToHex)
    i.ToRPM                                  0x08004a44   Section        0  functions.o(i.ToRPM)
    i.Trapf                                  0x08004a78   Section        0  functions.o(i.Trapf)
    i.Trimf                                  0x08004b50   Section        0  functions.o(i.Trimf)
    i.U1_SendData                            0x08004c1c   Section        0  usart_dma_config.o(i.U1_SendData)
    i.U6_SendData                            0x08004c40   Section        0  usart_dma_config.o(i.U6_SendData)
    i.USART1_Config                          0x08004c68   Section        0  usart_dma_config.o(i.USART1_Config)
    i.USART1_IRQHandler                      0x08004dcc   Section        0  stm32f4xx_it.o(i.USART1_IRQHandler)
    i.USART2_Config                          0x08004e0c   Section        0  usart_dma_config.o(i.USART2_Config)
    i.USART2_IRQHandler                      0x08004f70   Section        0  stm32f4xx_it.o(i.USART2_IRQHandler)
    i.USART6_Config                          0x08004fb0   Section        0  usart_dma_config.o(i.USART6_Config)
    i.USART6_IRQHandler                      0x08005110   Section        0  stm32f4xx_it.o(i.USART6_IRQHandler)
    i.USART_ClearFlag                        0x08005150   Section        0  stm32f4xx_usart.o(i.USART_ClearFlag)
    i.USART_Cmd                              0x08005156   Section        0  stm32f4xx_usart.o(i.USART_Cmd)
    i.USART_DMACmd                           0x0800516a   Section        0  stm32f4xx_usart.o(i.USART_DMACmd)
    i.USART_GetITStatus                      0x0800517a   Section        0  stm32f4xx_usart.o(i.USART_GetITStatus)
    i.USART_ITConfig                         0x080051b8   Section        0  stm32f4xx_usart.o(i.USART_ITConfig)
    i.USART_Init                             0x080051e8   Section        0  stm32f4xx_usart.o(i.USART_Init)
    i.USART_ReceiveData                      0x08005294   Section        0  stm32f4xx_usart.o(i.USART_ReceiveData)
    i.UsageFault_Handler                     0x0800529c   Section        0  stm32f4xx_it.o(i.UsageFault_Handler)
    i.Veh_CheckStateChange                   0x0800529e   Section        0  functions.o(i.Veh_CheckStateChange)
    i.Veh_GetCommandMessage                  0x080052b6   Section        0  functions.o(i.Veh_GetCommandMessage)
    i.Veh_ParametersInit                     0x080052e8   Section        0  functions.o(i.Veh_ParametersInit)
    i.Veh_UpdateMaxVelocity                  0x08005334   Section        0  functions.o(i.Veh_UpdateMaxVelocity)
    i.Veh_UpdateVehicleFromKey               0x0800533c   Section        0  functions.o(i.Veh_UpdateVehicleFromKey)
    i.WriteToFlash                           0x08005498   Section        0  functions.o(i.WriteToFlash)
    i.__ARM_fpclassify                       0x080054ee   Section        0  fpclassify.o(i.__ARM_fpclassify)
    i.__hardfp_atan                          0x08005520   Section        0  atan.o(i.__hardfp_atan)
    i.__hardfp_atan2                         0x08005800   Section        0  atan2.o(i.__hardfp_atan2)
    i.__hardfp_cos                           0x080059f0   Section        0  cos.o(i.__hardfp_cos)
    i.__hardfp_fabs                          0x08005ac8   Section        0  fabs.o(i.__hardfp_fabs)
    i.__hardfp_log                           0x08005ae0   Section        0  log.o(i.__hardfp_log)
    i.__hardfp_pow                           0x08005ec8   Section        0  pow.o(i.__hardfp_pow)
    i.__hardfp_sin                           0x08006b00   Section        0  sin.o(i.__hardfp_sin)
    i.__hardfp_sqrt                          0x08006bd8   Section        0  sqrt.o(i.__hardfp_sqrt)
    i.__hardfp_tan                           0x08006c58   Section        0  tan.o(i.__hardfp_tan)
    i.__ieee754_rem_pio2                     0x08006cf8   Section        0  rred.o(i.__ieee754_rem_pio2)
    i.__kernel_cos                           0x08007130   Section        0  cos_i.o(i.__kernel_cos)
    i.__kernel_poly                          0x080072a0   Section        0  poly.o(i.__kernel_poly)
    i.__kernel_sin                           0x08007398   Section        0  sin_i.o(i.__kernel_sin)
    i.__kernel_tan                           0x080074c8   Section        0  tan_i.o(i.__kernel_tan)
    i.__mathlib_dbl_underflow                0x08007818   Section        0  dunder.o(i.__mathlib_dbl_underflow)
    i.atan                                   0x08007838   Section        0  atan.o(i.atan)
    i.fabs                                   0x08007848   Section        0  fabs.o(i.fabs)
    i.fix                                    0x08007860   Section        0  functions.o(i.fix)
    i.main                                   0x08007874   Section        0  main.o(i.main)
    i.sqrt                                   0x08007dbc   Section        0  sqrt.o(i.sqrt)
    x$fpl$basic                              0x08007e2a   Section       24  basic.o(x$fpl$basic)
    $v0                                      0x08007e2a   Number         0  basic.o(x$fpl$basic)
    x$fpl$d2f                                0x08007e44   Section       98  d2f.o(x$fpl$d2f)
    $v0                                      0x08007e44   Number         0  d2f.o(x$fpl$d2f)
    x$fpl$dadd                               0x08007ea8   Section      336  daddsub_clz.o(x$fpl$dadd)
    $v0                                      0x08007ea8   Number         0  daddsub_clz.o(x$fpl$dadd)
    _dadd1                                   0x08007eb9   Thumb Code     0  daddsub_clz.o(x$fpl$dadd)
    x$fpl$dcheck1                            0x08007ff8   Section       16  dcheck1.o(x$fpl$dcheck1)
    $v0                                      0x08007ff8   Number         0  dcheck1.o(x$fpl$dcheck1)
    x$fpl$dcmpinf                            0x08008008   Section       24  dcmpi.o(x$fpl$dcmpinf)
    $v0                                      0x08008008   Number         0  dcmpi.o(x$fpl$dcmpinf)
    x$fpl$ddiv                               0x08008020   Section      688  ddiv.o(x$fpl$ddiv)
    $v0                                      0x08008020   Number         0  ddiv.o(x$fpl$ddiv)
    ddiv_entry                               0x08008027   Thumb Code     0  ddiv.o(x$fpl$ddiv)
    x$fpl$deqf                               0x080082d0   Section      120  deqf.o(x$fpl$deqf)
    $v0                                      0x080082d0   Number         0  deqf.o(x$fpl$deqf)
    x$fpl$dfix                               0x08008348   Section       94  dfix.o(x$fpl$dfix)
    $v0                                      0x08008348   Number         0  dfix.o(x$fpl$dfix)
    x$fpl$dfixu                              0x080083a8   Section       90  dfixu.o(x$fpl$dfixu)
    $v0                                      0x080083a8   Number         0  dfixu.o(x$fpl$dfixu)
    x$fpl$dflt                               0x08008402   Section       46  dflt_clz.o(x$fpl$dflt)
    $v0                                      0x08008402   Number         0  dflt_clz.o(x$fpl$dflt)
    x$fpl$dfltu                              0x08008430   Section       38  dflt_clz.o(x$fpl$dfltu)
    $v0                                      0x08008430   Number         0  dflt_clz.o(x$fpl$dfltu)
    x$fpl$dleqf                              0x08008458   Section      120  dleqf.o(x$fpl$dleqf)
    $v0                                      0x08008458   Number         0  dleqf.o(x$fpl$dleqf)
    x$fpl$dmul                               0x080084d0   Section      340  dmul.o(x$fpl$dmul)
    $v0                                      0x080084d0   Number         0  dmul.o(x$fpl$dmul)
    x$fpl$dnaninf                            0x08008624   Section      156  dnaninf.o(x$fpl$dnaninf)
    $v0                                      0x08008624   Number         0  dnaninf.o(x$fpl$dnaninf)
    x$fpl$dretinf                            0x080086c0   Section       12  dretinf.o(x$fpl$dretinf)
    $v0                                      0x080086c0   Number         0  dretinf.o(x$fpl$dretinf)
    x$fpl$drleqf                             0x080086cc   Section      108  drleqf.o(x$fpl$drleqf)
    $v0                                      0x080086cc   Number         0  drleqf.o(x$fpl$drleqf)
    x$fpl$drsb                               0x08008738   Section       22  daddsub_clz.o(x$fpl$drsb)
    $v0                                      0x08008738   Number         0  daddsub_clz.o(x$fpl$drsb)
    x$fpl$dsqrt                              0x08008750   Section      408  dsqrt_umaal.o(x$fpl$dsqrt)
    $v0                                      0x08008750   Number         0  dsqrt_umaal.o(x$fpl$dsqrt)
    x$fpl$dsub                               0x080088e8   Section      468  daddsub_clz.o(x$fpl$dsub)
    $v0                                      0x080088e8   Number         0  daddsub_clz.o(x$fpl$dsub)
    _dsub1                                   0x080088f9   Thumb Code     0  daddsub_clz.o(x$fpl$dsub)
    x$fpl$f2d                                0x08008abc   Section       86  f2d.o(x$fpl$f2d)
    $v0                                      0x08008abc   Number         0  f2d.o(x$fpl$f2d)
    x$fpl$fnaninf                            0x08008b12   Section      140  fnaninf.o(x$fpl$fnaninf)
    $v0                                      0x08008b12   Number         0  fnaninf.o(x$fpl$fnaninf)
    x$fpl$fpinit                             0x08008b9e   Section       10  fpinit.o(x$fpl$fpinit)
    $v0                                      0x08008b9e   Number         0  fpinit.o(x$fpl$fpinit)
    x$fpl$fretinf                            0x08008ba8   Section       10  fretinf.o(x$fpl$fretinf)
    $v0                                      0x08008ba8   Number         0  fretinf.o(x$fpl$fretinf)
    x$fpl$retnan                             0x08008bb2   Section      100  retnan.o(x$fpl$retnan)
    $v0                                      0x08008bb2   Number         0  retnan.o(x$fpl$retnan)
    x$fpl$scalbn                             0x08008c16   Section       92  scalbn.o(x$fpl$scalbn)
    $v0                                      0x08008c16   Number         0  scalbn.o(x$fpl$scalbn)
    x$fpl$trapveneer                         0x08008c72   Section       48  trapv.o(x$fpl$trapveneer)
    $v0                                      0x08008c72   Number         0  trapv.o(x$fpl$trapveneer)
    x$fpl$usenofp                            0x08008ca2   Section        0  usenofp.o(x$fpl$usenofp)
    .constdata                               0x08008ca8   Section      152  atan.o(.constdata)
    atanhi                                   0x08008ca8   Data          32  atan.o(.constdata)
    atanlo                                   0x08008cc8   Data          32  atan.o(.constdata)
    aTodd                                    0x08008ce8   Data          40  atan.o(.constdata)
    aTeven                                   0x08008d10   Data          48  atan.o(.constdata)
    .constdata                               0x08008d40   Section       56  log.o(.constdata)
    Lg2                                      0x08008d40   Data          24  log.o(.constdata)
    Lg                                       0x08008d58   Data          32  log.o(.constdata)
    .constdata                               0x08008d78   Section      136  pow.o(.constdata)
    bp                                       0x08008d78   Data          16  pow.o(.constdata)
    dp_h                                     0x08008d88   Data          16  pow.o(.constdata)
    dp_l                                     0x08008d98   Data          16  pow.o(.constdata)
    L                                        0x08008da8   Data          48  pow.o(.constdata)
    P                                        0x08008dd8   Data          40  pow.o(.constdata)
    .constdata                               0x08008e00   Section       48  cos_i.o(.constdata)
    C                                        0x08008e00   Data          48  cos_i.o(.constdata)
    .constdata                               0x08008e30   Section        8  qnan.o(.constdata)
    .constdata                               0x08008e38   Section      200  rred.o(.constdata)
    pio2s                                    0x08008e38   Data          48  rred.o(.constdata)
    twooverpi                                0x08008e68   Data         152  rred.o(.constdata)
    .constdata                               0x08008f00   Section       40  sin_i.o(.constdata)
    S                                        0x08008f00   Data          40  sin_i.o(.constdata)
    .constdata                               0x08008f28   Section       96  tan_i.o(.constdata)
    Todd                                     0x08008f28   Data          48  tan_i.o(.constdata)
    Teven                                    0x08008f58   Data          48  tan_i.o(.constdata)
    .data                                    0x20000000   Section       20  system_stm32f4xx.o(.data)
    .data                                    0x20000014   Section        4  main.o(.data)
    .data                                    0x20000018   Section        3  stm32f4xx_it.o(.data)
    .data                                    0x2000001c   Section       12  encoder.o(.data)
    .data                                    0x20000028   Section       20  usart_dma_config.o(.data)
    .data                                    0x20000040   Section       64  functions.o(.data)
    .data                                    0x20000080   Section       12  srf05.o(.data)
    .data                                    0x2000008c   Section       16  stm32f4xx_rcc.o(.data)
    APBAHBPrescTable                         0x2000008c   Data          16  stm32f4xx_rcc.o(.data)
    .bss                                     0x200000a0   Section      104  main.o(.bss)
    .bss                                     0x20000108   Section       32  encoder.o(.bss)
    .bss                                     0x20000128   Section     2696  usart_dma_config.o(.bss)
    .bss                                     0x20000bb0   Section       13  functions.o(.bss)
    .bss                                     0x20000bc0   Section       88  functions.o(.bss)
    .bss                                     0x20000c18   Section       88  functions.o(.bss)
    .bss                                     0x20000c70   Section    52348  functions.o(.bss)
    .bss                                     0x2000d8ec   Section     1500  functions.o(.bss)
    .bss                                     0x2000dec8   Section     1500  functions.o(.bss)
    .bss                                     0x2000e4a8   Section       72  functions.o(.bss)
    .bss                                     0x2000e4f0   Section       21  functions.o(.bss)
    .bss                                     0x2000e508   Section       22  srf05.o(.bss)
    .bss                                     0x2000e520   Section       56  twowheelrobot.o(.bss)
    .bss                                     0x2000e558   Section       96  libspace.o(.bss)
    HEAP                                     0x2000e5b8   Section      512  startup_stm32f411xe.o(HEAP)
    Heap_Mem                                 0x2000e5b8   Data         512  startup_stm32f411xe.o(HEAP)
    STACK                                    0x2000e7b8   Section     1024  startup_stm32f411xe.o(STACK)
    Stack_Mem                                0x2000e7b8   Data        1024  startup_stm32f411xe.o(STACK)
    __initial_sp                             0x2000ebb8   Data           0  startup_stm32f411xe.o(STACK)

    Global Symbols

    Symbol Name                              Value     Ov Type        Size  Object(Section)

    BuildAttributes$$THM_ISAv4$E$P$D$K$B$S$7EM$VFPi3$EXTD16$VFPS$VFMA$PE$A:L22UL41UL21$X:L11$S22US41US21$IEEE1$IW$USESV6$~STKCKD$USESV7$~SHL$OTIME$ROPI$IEEEX$EBA8$UX$STANDARDLIB$REQ8$PRES8$EABIv2 0x00000000   Number         0  anon$$obj.o ABSOLUTE
    __ARM_use_no_argv                        0x00000000   Number         0  main.o ABSOLUTE
    __ARM_exceptions_init                     - Undefined Weak Reference
    __alloca_initialize                       - Undefined Weak Reference
    __cpp_initialize__aeabi_                  - Undefined Weak Reference
    __cxa_finalize                            - Undefined Weak Reference
    __rt_locale                               - Undefined Weak Reference
    __sigvec_lookup                           - Undefined Weak Reference
    _atexit_init                              - Undefined Weak Reference
    _call_atexit_fns                          - Undefined Weak Reference
    _clock_init                               - Undefined Weak Reference
    _fp_trap_init                             - Undefined Weak Reference
    _fp_trap_shutdown                         - Undefined Weak Reference
    _get_lc_collate                           - Undefined Weak Reference
    _get_lc_ctype                             - Undefined Weak Reference
    _get_lc_monetary                          - Undefined Weak Reference
    _get_lc_numeric                           - Undefined Weak Reference
    _get_lc_time                              - Undefined Weak Reference
    _getenv_init                              - Undefined Weak Reference
    _handle_redirection                       - Undefined Weak Reference
    _init_alloc                               - Undefined Weak Reference
    _init_user_alloc                          - Undefined Weak Reference
    _initio                                   - Undefined Weak Reference
    _rand_init                                - Undefined Weak Reference
    _signal_finish                            - Undefined Weak Reference
    _signal_init                              - Undefined Weak Reference
    _terminate_alloc                          - Undefined Weak Reference
    _terminate_user_alloc                     - Undefined Weak Reference
    _terminateio                              - Undefined Weak Reference
    __Vectors_Size                           0x00000198   Number         0  startup_stm32f411xe.o ABSOLUTE
    __Vectors                                0x08000000   Data           4  startup_stm32f411xe.o(RESET)
    __Vectors_End                            0x08000198   Data           0  startup_stm32f411xe.o(RESET)
    __main                                   0x08000199   Thumb Code     8  __main.o(!!!main)
    __scatterload                            0x080001a1   Thumb Code     0  __scatter.o(!!!scatter)
    __scatterload_rt2                        0x080001a1   Thumb Code    44  __scatter.o(!!!scatter)
    __scatterload_rt2_thumb_only             0x080001a1   Thumb Code     0  __scatter.o(!!!scatter)
    __scatterload_null                       0x080001af   Thumb Code     0  __scatter.o(!!!scatter)
    __scatterload_copy                       0x080001d5   Thumb Code    26  __scatter_copy.o(!!handler_copy)
    __scatterload_zeroinit                   0x080001f1   Thumb Code    28  __scatter_zi.o(!!handler_zi)
    __rt_lib_init                            0x0800020d   Thumb Code     0  libinit.o(.ARM.Collect$$libinit$$00000000)
    __rt_lib_init_fp_1                       0x0800020f   Thumb Code     0  libinit2.o(.ARM.Collect$$libinit$$00000001)
    __rt_lib_init_alloca_1                   0x08000213   Thumb Code     0  libinit2.o(.ARM.Collect$$libinit$$0000002C)
    __rt_lib_init_argv_1                     0x08000213   Thumb Code     0  libinit2.o(.ARM.Collect$$libinit$$0000002A)
    __rt_lib_init_atexit_1                   0x08000213   Thumb Code     0  libinit2.o(.ARM.Collect$$libinit$$00000019)
    __rt_lib_init_clock_1                    0x08000213   Thumb Code     0  libinit2.o(.ARM.Collect$$libinit$$0000001F)
    __rt_lib_init_cpp_1                      0x08000213   Thumb Code     0  libinit2.o(.ARM.Collect$$libinit$$00000030)
    __rt_lib_init_exceptions_1               0x08000213   Thumb Code     0  libinit2.o(.ARM.Collect$$libinit$$0000002E)
    __rt_lib_init_fp_trap_1                  0x08000213   Thumb Code     0  libinit2.o(.ARM.Collect$$libinit$$0000001D)
    __rt_lib_init_getenv_1                   0x08000213   Thumb Code     0  libinit2.o(.ARM.Collect$$libinit$$00000021)
    __rt_lib_init_heap_1                     0x08000213   Thumb Code     0  libinit2.o(.ARM.Collect$$libinit$$00000008)
    __rt_lib_init_lc_collate_1               0x08000213   Thumb Code     0  libinit2.o(.ARM.Collect$$libinit$$0000000F)
    __rt_lib_init_lc_ctype_1                 0x08000213   Thumb Code     0  libinit2.o(.ARM.Collect$$libinit$$00000011)
    __rt_lib_init_lc_monetary_1              0x08000213   Thumb Code     0  libinit2.o(.ARM.Collect$$libinit$$00000013)
    __rt_lib_init_lc_numeric_1               0x08000213   Thumb Code     0  libinit2.o(.ARM.Collect$$libinit$$00000015)
    __rt_lib_init_lc_time_1                  0x08000213   Thumb Code     0  libinit2.o(.ARM.Collect$$libinit$$00000017)
    __rt_lib_init_rand_1                     0x08000213   Thumb Code     0  libinit2.o(.ARM.Collect$$libinit$$0000000C)
    __rt_lib_init_return                     0x08000213   Thumb Code     0  libinit2.o(.ARM.Collect$$libinit$$00000031)
    __rt_lib_init_signal_1                   0x08000213   Thumb Code     0  libinit2.o(.ARM.Collect$$libinit$$0000001B)
    __rt_lib_init_stdio_1                    0x08000213   Thumb Code     0  libinit2.o(.ARM.Collect$$libinit$$00000023)
    __rt_lib_init_user_alloc_1               0x08000213   Thumb Code     0  libinit2.o(.ARM.Collect$$libinit$$0000000A)
    __rt_lib_shutdown                        0x08000215   Thumb Code     0  libshutdown.o(.ARM.Collect$$libshutdown$$00000000)
    __rt_lib_shutdown_fp_trap_1              0x08000217   Thumb Code     0  libshutdown2.o(.ARM.Collect$$libshutdown$$00000006)
    __rt_lib_shutdown_heap_1                 0x08000217   Thumb Code     0  libshutdown2.o(.ARM.Collect$$libshutdown$$0000000E)
    __rt_lib_shutdown_return                 0x08000217   Thumb Code     0  libshutdown2.o(.ARM.Collect$$libshutdown$$0000000F)
    __rt_lib_shutdown_signal_1               0x08000217   Thumb Code     0  libshutdown2.o(.ARM.Collect$$libshutdown$$00000009)
    __rt_lib_shutdown_stdio_1                0x08000217   Thumb Code     0  libshutdown2.o(.ARM.Collect$$libshutdown$$00000003)
    __rt_lib_shutdown_user_alloc_1           0x08000217   Thumb Code     0  libshutdown2.o(.ARM.Collect$$libshutdown$$0000000B)
    __rt_entry                               0x08000219   Thumb Code     0  rtentry.o(.ARM.Collect$$rtentry$$00000000)
    __rt_entry_presh_1                       0x08000219   Thumb Code     0  rtentry2.o(.ARM.Collect$$rtentry$$00000002)
    __rt_entry_sh                            0x08000219   Thumb Code     0  rtentry4.o(.ARM.Collect$$rtentry$$00000004)
    __rt_entry_li                            0x0800021f   Thumb Code     0  rtentry2.o(.ARM.Collect$$rtentry$$0000000A)
    __rt_entry_postsh_1                      0x0800021f   Thumb Code     0  rtentry2.o(.ARM.Collect$$rtentry$$00000009)
    __rt_entry_main                          0x08000223   Thumb Code     0  rtentry2.o(.ARM.Collect$$rtentry$$0000000D)
    __rt_entry_postli_1                      0x08000223   Thumb Code     0  rtentry2.o(.ARM.Collect$$rtentry$$0000000C)
    __rt_exit                                0x0800022b   Thumb Code     0  rtexit.o(.ARM.Collect$$rtexit$$00000000)
    __rt_exit_ls                             0x0800022d   Thumb Code     0  rtexit2.o(.ARM.Collect$$rtexit$$00000003)
    __rt_exit_prels_1                        0x0800022d   Thumb Code     0  rtexit2.o(.ARM.Collect$$rtexit$$00000002)
    __rt_exit_exit                           0x08000231   Thumb Code     0  rtexit2.o(.ARM.Collect$$rtexit$$00000004)
    Reset_Handler                            0x08000239   Thumb Code     8  startup_stm32f411xe.o(.text)
    ADC_IRQHandler                           0x08000253   Thumb Code     0  startup_stm32f411xe.o(.text)
    DMA1_Stream0_IRQHandler                  0x08000253   Thumb Code     0  startup_stm32f411xe.o(.text)
    DMA1_Stream1_IRQHandler                  0x08000253   Thumb Code     0  startup_stm32f411xe.o(.text)
    DMA1_Stream2_IRQHandler                  0x08000253   Thumb Code     0  startup_stm32f411xe.o(.text)
    DMA1_Stream3_IRQHandler                  0x08000253   Thumb Code     0  startup_stm32f411xe.o(.text)
    DMA1_Stream4_IRQHandler                  0x08000253   Thumb Code     0  startup_stm32f411xe.o(.text)
    DMA1_Stream6_IRQHandler                  0x08000253   Thumb Code     0  startup_stm32f411xe.o(.text)
    DMA1_Stream7_IRQHandler                  0x08000253   Thumb Code     0  startup_stm32f411xe.o(.text)
    DMA2_Stream0_IRQHandler                  0x08000253   Thumb Code     0  startup_stm32f411xe.o(.text)
    DMA2_Stream1_IRQHandler                  0x08000253   Thumb Code     0  startup_stm32f411xe.o(.text)
    DMA2_Stream3_IRQHandler                  0x08000253   Thumb Code     0  startup_stm32f411xe.o(.text)
    DMA2_Stream4_IRQHandler                  0x08000253   Thumb Code     0  startup_stm32f411xe.o(.text)
    DMA2_Stream6_IRQHandler                  0x08000253   Thumb Code     0  startup_stm32f411xe.o(.text)
    DMA2_Stream7_IRQHandler                  0x08000253   Thumb Code     0  startup_stm32f411xe.o(.text)
    EXTI0_IRQHandler                         0x08000253   Thumb Code     0  startup_stm32f411xe.o(.text)
    EXTI15_10_IRQHandler                     0x08000253   Thumb Code     0  startup_stm32f411xe.o(.text)
    EXTI1_IRQHandler                         0x08000253   Thumb Code     0  startup_stm32f411xe.o(.text)
    EXTI2_IRQHandler                         0x08000253   Thumb Code     0  startup_stm32f411xe.o(.text)
    EXTI3_IRQHandler                         0x08000253   Thumb Code     0  startup_stm32f411xe.o(.text)
    EXTI4_IRQHandler                         0x08000253   Thumb Code     0  startup_stm32f411xe.o(.text)
    EXTI9_5_IRQHandler                       0x08000253   Thumb Code     0  startup_stm32f411xe.o(.text)
    FLASH_IRQHandler                         0x08000253   Thumb Code     0  startup_stm32f411xe.o(.text)
    FPU_IRQHandler                           0x08000253   Thumb Code     0  startup_stm32f411xe.o(.text)
    I2C1_ER_IRQHandler                       0x08000253   Thumb Code     0  startup_stm32f411xe.o(.text)
    I2C1_EV_IRQHandler                       0x08000253   Thumb Code     0  startup_stm32f411xe.o(.text)
    I2C2_ER_IRQHandler                       0x08000253   Thumb Code     0  startup_stm32f411xe.o(.text)
    I2C2_EV_IRQHandler                       0x08000253   Thumb Code     0  startup_stm32f411xe.o(.text)
    I2C3_ER_IRQHandler                       0x08000253   Thumb Code     0  startup_stm32f411xe.o(.text)
    I2C3_EV_IRQHandler                       0x08000253   Thumb Code     0  startup_stm32f411xe.o(.text)
    OTG_FS_IRQHandler                        0x08000253   Thumb Code     0  startup_stm32f411xe.o(.text)
    OTG_FS_WKUP_IRQHandler                   0x08000253   Thumb Code     0  startup_stm32f411xe.o(.text)
    PVD_IRQHandler                           0x08000253   Thumb Code     0  startup_stm32f411xe.o(.text)
    RCC_IRQHandler                           0x08000253   Thumb Code     0  startup_stm32f411xe.o(.text)
    RTC_Alarm_IRQHandler                     0x08000253   Thumb Code     0  startup_stm32f411xe.o(.text)
    RTC_WKUP_IRQHandler                      0x08000253   Thumb Code     0  startup_stm32f411xe.o(.text)
    SDIO_IRQHandler                          0x08000253   Thumb Code     0  startup_stm32f411xe.o(.text)
    SPI1_IRQHandler                          0x08000253   Thumb Code     0  startup_stm32f411xe.o(.text)
    SPI2_IRQHandler                          0x08000253   Thumb Code     0  startup_stm32f411xe.o(.text)
    SPI3_IRQHandler                          0x08000253   Thumb Code     0  startup_stm32f411xe.o(.text)
    SPI4_IRQHandler                          0x08000253   Thumb Code     0  startup_stm32f411xe.o(.text)
    SPI5_IRQHandler                          0x08000253   Thumb Code     0  startup_stm32f411xe.o(.text)
    TAMP_STAMP_IRQHandler                    0x08000253   Thumb Code     0  startup_stm32f411xe.o(.text)
    TIM1_BRK_TIM9_IRQHandler                 0x08000253   Thumb Code     0  startup_stm32f411xe.o(.text)
    TIM1_CC_IRQHandler                       0x08000253   Thumb Code     0  startup_stm32f411xe.o(.text)
    TIM1_TRG_COM_TIM11_IRQHandler            0x08000253   Thumb Code     0  startup_stm32f411xe.o(.text)
    TIM1_UP_TIM10_IRQHandler                 0x08000253   Thumb Code     0  startup_stm32f411xe.o(.text)
    WWDG_IRQHandler                          0x08000253   Thumb Code     0  startup_stm32f411xe.o(.text)
    __user_initial_stackheap                 0x08000255   Thumb Code     0  startup_stm32f411xe.o(.text)
    __use_two_region_memory                  0x08000279   Thumb Code     2  heapauxi.o(.text)
    __rt_heap_escrow$2region                 0x0800027b   Thumb Code     2  heapauxi.o(.text)
    __rt_heap_expand$2region                 0x0800027d   Thumb Code     2  heapauxi.o(.text)
    __read_errno                             0x0800027f   Thumb Code    10  _rserrno.o(.text)
    __set_errno                              0x08000289   Thumb Code    12  _rserrno.o(.text)
    __aeabi_errno_addr                       0x08000295   Thumb Code     8  rt_errno_addr_intlibspace.o(.text)
    __errno$intlibspace                      0x08000295   Thumb Code     0  rt_errno_addr_intlibspace.o(.text)
    __rt_errno_addr$intlibspace              0x08000295   Thumb Code     0  rt_errno_addr_intlibspace.o(.text)
    __user_libspace                          0x0800029d   Thumb Code     8  libspace.o(.text)
    __user_perproc_libspace                  0x0800029d   Thumb Code     0  libspace.o(.text)
    __user_perthread_libspace                0x0800029d   Thumb Code     0  libspace.o(.text)
    __user_setup_stackheap                   0x080002a5   Thumb Code    74  sys_stackheap_outer.o(.text)
    exit                                     0x080002ef   Thumb Code    12  exit.o(.text)
    _sys_exit                                0x080002fd   Thumb Code     8  sys_exit.o(.text)
    __I$use$semihosting                      0x08000309   Thumb Code     0  use_no_semi.o(.text)
    __use_no_semihosting_swi                 0x08000309   Thumb Code     2  use_no_semi.o(.text)
    BusFault_Handler                         0x0800030b   Thumb Code     2  stm32f4xx_it.o(i.BusFault_Handler)
    __semihosting_library_function           0x0800030b   Thumb Code     0  indicate_semi.o(.text)
    Convert4BytesToWordData                  0x0800030d   Thumb Code    62  functions.o(i.Convert4BytesToWordData)
    Core_Delay_Us                            0x0800034b   Thumb Code    18  srf05.o(i.Core_Delay_Us)
    DMA1_Stream5_IRQHandler                  0x0800035d   Thumb Code    64  stm32f4xx_it.o(i.DMA1_Stream5_IRQHandler)
    DMA2_Stream2_IRQHandler                  0x080003c1   Thumb Code  1830  stm32f4xx_it.o(i.DMA2_Stream2_IRQHandler)
    DMA2_Stream5_IRQHandler                  0x08000af9   Thumb Code   110  stm32f4xx_it.o(i.DMA2_Stream5_IRQHandler)
    DMA_ClearFlag                            0x08000b8d   Thumb Code    32  stm32f4xx_dma.o(i.DMA_ClearFlag)
    DMA_ClearITPendingBit                    0x08000bb9   Thumb Code    32  stm32f4xx_dma.o(i.DMA_ClearITPendingBit)
    DMA_Cmd                                  0x08000be5   Thumb Code    20  stm32f4xx_dma.o(i.DMA_Cmd)
    DMA_GetFlagStatus                        0x08000bf9   Thumb Code    40  stm32f4xx_dma.o(i.DMA_GetFlagStatus)
    DMA_ITConfig                             0x08000c2d   Thumb Code    44  stm32f4xx_dma.o(i.DMA_ITConfig)
    DMA_Init                                 0x08000c59   Thumb Code    80  stm32f4xx_dma.o(i.DMA_Init)
    DebugMon_Handler                         0x08000cad   Thumb Code     2  stm32f4xx_it.o(i.DebugMon_Handler)
    Defuzzification_Max_Min                  0x08000cb1   Thumb Code  1162  functions.o(i.Defuzzification_Max_Min)
    Degree_To_Degree                         0x08001141   Thumb Code    98  functions.o(i.Degree_To_Degree)
    DirPinConfig                             0x080011bd   Thumb Code    42  encoder.o(i.DirPinConfig)
    Encoder_Config                           0x080011f1   Thumb Code    30  encoder.o(i.Encoder_Config)
    EraseMemory                              0x0800120f   Thumb Code    24  functions.o(i.EraseMemory)
    Error_AppendError                        0x08001227   Thumb Code    10  functions.o(i.Error_AppendError)
    Error_ResetIndex                         0x08001231   Thumb Code     6  functions.o(i.Error_ResetIndex)
    FLASH_EraseSector                        0x08001239   Thumb Code   104  stm32f4xx_flash.o(i.FLASH_EraseSector)
    FLASH_GetStatus                          0x080012a5   Thumb Code    56  stm32f4xx_flash.o(i.FLASH_GetStatus)
    FLASH_Lock                               0x080012e1   Thumb Code    12  stm32f4xx_flash.o(i.FLASH_Lock)
    FLASH_ProgramWord                        0x080012f1   Thumb Code    56  stm32f4xx_flash.o(i.FLASH_ProgramWord)
    FLASH_Unlock                             0x0800132d   Thumb Code    22  stm32f4xx_flash.o(i.FLASH_Unlock)
    FLASH_WaitForLastOperation               0x08001351   Thumb Code    30  stm32f4xx_flash.o(i.FLASH_WaitForLastOperation)
    FeedBack                                 0x0800136f   Thumb Code    42  functions.o(i.FeedBack)
    Fuzzy_Max                                0x08001399   Thumb Code    68  functions.o(i.Fuzzy_Max)
    Fuzzy_Min                                0x080013dd   Thumb Code    58  functions.o(i.Fuzzy_Min)
    Fuzzy_ParametersInit                     0x08001419   Thumb Code   250  functions.o(i.Fuzzy_ParametersInit)
    GPIO_Init                                0x080015e5   Thumb Code   162  stm32f4xx_gpio.o(i.GPIO_Init)
    GPIO_PinAFConfig                         0x08001687   Thumb Code    32  stm32f4xx_gpio.o(i.GPIO_PinAFConfig)
    GPIO_ReadInputDataBit                    0x080016a7   Thumb Code    14  stm32f4xx_gpio.o(i.GPIO_ReadInputDataBit)
    GPIO_ReadOutputDataBit                   0x080016b5   Thumb Code    14  stm32f4xx_gpio.o(i.GPIO_ReadOutputDataBit)
    GPIO_ResetBits                           0x080016c3   Thumb Code     4  stm32f4xx_gpio.o(i.GPIO_ResetBits)
    GPIO_SetBits                             0x080016c7   Thumb Code     4  stm32f4xx_gpio.o(i.GPIO_SetBits)
    GPS_ClearPathBuffer                      0x080016cd   Thumb Code    64  functions.o(i.GPS_ClearPathBuffer)
    GPS_GetLLQMessage                        0x08001715   Thumb Code   290  functions.o(i.GPS_GetLLQMessage)
    GPS_GetLatFromString                     0x0800185d   Thumb Code   154  functions.o(i.GPS_GetLatFromString)
    GPS_GetLonFromString                     0x08001909   Thumb Code   140  functions.o(i.GPS_GetLonFromString)
    GPS_HeaderCompare                        0x080019a5   Thumb Code    26  functions.o(i.GPS_HeaderCompare)
    GPS_LLToDegree                           0x080019c1   Thumb Code   104  functions.o(i.GPS_LLToDegree)
    GPS_LatLonToUTM                          0x08001a39   Thumb Code  1378  functions.o(i.GPS_LatLonToUTM)
    GPS_ParametersInit                       0x08001fb5   Thumb Code    66  functions.o(i.GPS_ParametersInit)
    GPS_PathPlanning                         0x08002011   Thumb Code   346  functions.o(i.GPS_PathPlanning)
    GPS_SavePathCoordinateToFlash            0x0800216d   Thumb Code   160  functions.o(i.GPS_SavePathCoordinateToFlash)
    GPS_StanleyControl                       0x08002211   Thumb Code   816  functions.o(i.GPS_StanleyControl)
    GPS_UpdateParameters                     0x080025a9   Thumb Code    10  functions.o(i.GPS_UpdateParameters)
    GPS_UpdatePathCoordinate                 0x080025b5   Thumb Code   112  functions.o(i.GPS_UpdatePathCoordinate)
    GPS_UpdatePathYaw                        0x0800262d   Thumb Code   122  functions.o(i.GPS_UpdatePathYaw)
    GetAFFromTIM                             0x080026b1   Thumb Code    70  stm32f411_rccenable.o(i.GetAFFromTIM)
    GetIRQHandlerFromTIMxCC                  0x08002719   Thumb Code    84  stm32f411_rccenable.o(i.GetIRQHandlerFromTIMxCC)
    GetMessageInfo                           0x08002789   Thumb Code    96  functions.o(i.GetMessageInfo)
    GetNbOfReceiveHeader                     0x080027e9   Thumb Code   144  functions.o(i.GetNbOfReceiveHeader)
    GetPinSourceFromGPIOPin                  0x080028c9   Thumb Code   144  stm32f411_rccenable.o(i.GetPinSourceFromGPIOPin)
    GetValueFromString                       0x08002959   Thumb Code   344  functions.o(i.GetValueFromString)
    GetVehicleVelocity                       0x08002ad5   Thumb Code   252  stm32f4xx_it.o(i.GetVehicleVelocity)
    HardFault_Handler                        0x08002bf9   Thumb Code     2  stm32f4xx_it.o(i.HardFault_Handler)
    IMU_GetValueFromMessage                  0x08002bfd   Thumb Code   126  functions.o(i.IMU_GetValueFromMessage)
    IMU_ParametesInit                        0x08002c91   Thumb Code    30  functions.o(i.IMU_ParametesInit)
    IMU_UpdateFuzzyCoefficients              0x08002cb9   Thumb Code     8  functions.o(i.IMU_UpdateFuzzyCoefficients)
    IMU_UpdateFuzzyInput                     0x08002cc1   Thumb Code   202  functions.o(i.IMU_UpdateFuzzyInput)
    IMU_UpdatePreAngle                       0x08002da5   Thumb Code    10  functions.o(i.IMU_UpdatePreAngle)
    IMU_UpdateSetAngle                       0x08002daf   Thumb Code    34  functions.o(i.IMU_UpdateSetAngle)
    IsCorrectMessage                         0x08002dd1   Thumb Code    46  functions.o(i.IsCorrectMessage)
    IsDataTransferCompleted                  0x08002e01   Thumb Code    18  functions.o(i.IsDataTransferCompleted)
    IsDouble                                 0x08002e1d   Thumb Code    60  functions.o(i.IsDouble)
    IsValidData                              0x08002e61   Thumb Code    12  functions.o(i.IsValidData)
    LRCCalculate                             0x08002e6d   Thumb Code    22  functions.o(i.LRCCalculate)
    LengthOfLine                             0x08002e83   Thumb Code    24  functions.o(i.LengthOfLine)
    M1_Backward                              0x08002e9d   Thumb Code     8  encoder.o(i.M1_Backward)
    M1_Encoder_Config                        0x08002ea9   Thumb Code   162  encoder.o(i.M1_Encoder_Config)
    M1_Forward                               0x08002f5d   Thumb Code     8  encoder.o(i.M1_Forward)
    M2_Backward                              0x08002f69   Thumb Code     8  encoder.o(i.M2_Backward)
    M2_Encoder_Config                        0x08002f75   Thumb Code   164  encoder.o(i.M2_Encoder_Config)
    M2_Forward                               0x08003029   Thumb Code     8  encoder.o(i.M2_Forward)
    MemManage_Handler                        0x08003035   Thumb Code     2  stm32f4xx_it.o(i.MemManage_Handler)
    NMI_Handler                              0x08003037   Thumb Code     2  stm32f4xx_it.o(i.NMI_Handler)
    NVIC_Init                                0x08003039   Thumb Code    96  misc.o(i.NVIC_Init)
    NVIC_PriorityGroupConfig                 0x0800309d   Thumb Code    10  misc.o(i.NVIC_PriorityGroupConfig)
    PID_Compute                              0x080030b1   Thumb Code   310  functions.o(i.PID_Compute)
    PID_ParametersInitial                    0x0800320d   Thumb Code    44  functions.o(i.PID_ParametersInitial)
    PID_ParametersUpdate                     0x08003241   Thumb Code     6  functions.o(i.PID_ParametersUpdate)
    PID_ReadParametersFromFlash              0x08003249   Thumb Code   158  main.o(i.PID_ReadParametersFromFlash)
    PID_ResetEncoder                         0x080032fd   Thumb Code    10  functions.o(i.PID_ResetEncoder)
    PID_ResetPID                             0x08003309   Thumb Code    18  functions.o(i.PID_ResetPID)
    PID_SavePIDParaToFlash                   0x08003325   Thumb Code   218  functions.o(i.PID_SavePIDParaToFlash)
    PID_UpdateEnc                            0x08003409   Thumb Code     4  functions.o(i.PID_UpdateEnc)
    PID_UpdateSetVel                         0x0800340d   Thumb Code     6  functions.o(i.PID_UpdateSetVel)
    PWM_Config                               0x08003415   Thumb Code   148  encoder.o(i.PWM_Config)
    Parameters_Init                          0x080034b9   Thumb Code   128  main.o(i.Parameters_Init)
    PendSV_Handler                           0x0800357d   Thumb Code     2  stm32f4xx_it.o(i.PendSV_Handler)
    Peripheral_Config                        0x08003581   Thumb Code    62  main.o(i.Peripheral_Config)
    Pi_To_Pi                                 0x080035c5   Thumb Code   100  functions.o(i.Pi_To_Pi)
    RCC_AHB1PeriphClockCmd                   0x08003641   Thumb Code    18  stm32f4xx_rcc.o(i.RCC_AHB1PeriphClockCmd)
    RCC_APB1PeriphClockCmd                   0x08003659   Thumb Code    18  stm32f4xx_rcc.o(i.RCC_APB1PeriphClockCmd)
    RCC_APB2PeriphClockCmd                   0x08003671   Thumb Code    18  stm32f4xx_rcc.o(i.RCC_APB2PeriphClockCmd)
    RCC_GPIOxClockCmd                        0x08003689   Thumb Code   104  stm32f411_rccenable.o(i.RCC_GPIOxClockCmd)
    RCC_GetClocksFreq                        0x08003719   Thumb Code   132  stm32f4xx_rcc.o(i.RCC_GetClocksFreq)
    RCC_TIMxClockCmd                         0x080037ad   Thumb Code   142  stm32f411_rccenable.o(i.RCC_TIMxClockCmd)
    ReadFromFlash                            0x0800386d   Thumb Code    60  functions.o(i.ReadFromFlash)
    Reset_Motor                              0x080038a9   Thumb Code    80  stm32f4xx_it.o(i.Reset_Motor)
    Robot_AntiClockwise                      0x08003911   Thumb Code    14  encoder.o(i.Robot_AntiClockwise)
    Robot_Backward                           0x0800391f   Thumb Code    14  encoder.o(i.Robot_Backward)
    Robot_Clockwise                          0x0800392d   Thumb Code    14  encoder.o(i.Robot_Clockwise)
    Robot_Forward                            0x0800393b   Thumb Code    14  encoder.o(i.Robot_Forward)
    Robot_Run                                0x08003949   Thumb Code   118  encoder.o(i.Robot_Run)
    SVC_Handler                              0x080039d5   Thumb Code     2  stm32f4xx_it.o(i.SVC_Handler)
    SaveDataToInternalFlash                  0x080039d9   Thumb Code    36  stm32f4xx_it.o(i.SaveDataToInternalFlash)
    Self_ParametersInit                      0x08003a0d   Thumb Code    34  twowheelrobot.o(i.Self_ParametersInit)
    SendData                                 0x08003a49   Thumb Code   586  main.o(i.SendData)
    SendStatusData                           0x08003cb9   Thumb Code   420  main.o(i.SendStatusData)
    Srf05_BackEnd                            0x08003ee9   Thumb Code    42  main.o(i.Srf05_BackEnd)
    Srf05_ClearFlag                          0x08003f21   Thumb Code     6  srf05.o(i.Srf05_ClearFlag)
    Srf05_FirstInit                          0x08003f29   Thumb Code    16  srf05.o(i.Srf05_FirstInit)
    Srf05_Initial                            0x08003f41   Thumb Code   204  srf05.o(i.Srf05_Initial)
    Srf05_LeftFront                          0x08004015   Thumb Code    42  main.o(i.Srf05_LeftFront)
    Srf05_MidFront                           0x0800404d   Thumb Code    42  main.o(i.Srf05_MidFront)
    Srf05_RightFront                         0x08004085   Thumb Code    38  main.o(i.Srf05_RightFront)
    Srf05_SetFlag                            0x080040b9   Thumb Code     6  srf05.o(i.Srf05_SetFlag)
    Srf05_StartSensorBack                    0x080040c1   Thumb Code    48  main.o(i.Srf05_StartSensorBack)
    Srf05_StartSensorLeft                    0x080040f5   Thumb Code    48  main.o(i.Srf05_StartSensorLeft)
    Srf05_StartSensorMid                     0x08004129   Thumb Code    48  main.o(i.Srf05_StartSensorMid)
    Srf05_StartSensorRight                   0x0800415d   Thumb Code    48  main.o(i.Srf05_StartSensorRight)
    StartTimer                               0x08004191   Thumb Code    52  main.o(i.StartTimer)
    Status_CheckStatus                       0x080041cd   Thumb Code     4  functions.o(i.Status_CheckStatus)
    Status_ParametersInit                    0x080041d1   Thumb Code    28  functions.o(i.Status_ParametersInit)
    Status_UpdateStatus                      0x080041ed   Thumb Code     4  functions.o(i.Status_UpdateStatus)
    StopTimer                                0x080041f1   Thumb Code    24  main.o(i.StopTimer)
    Stop_Motor                               0x08004209   Thumb Code    10  encoder.o(i.Stop_Motor)
    StringHeaderCompare                      0x08004219   Thumb Code    28  functions.o(i.StringHeaderCompare)
    SysTick_Handler                          0x08004235   Thumb Code   110  stm32f4xx_it.o(i.SysTick_Handler)
    SystemInit                               0x080042ad   Thumb Code    74  system_stm32f4xx.o(i.SystemInit)
    TIM2_IRQHandler                          0x0800436d   Thumb Code   354  stm32f4xx_it.o(i.TIM2_IRQHandler)
    TIM3_IRQHandler                          0x080044f9   Thumb Code    20  stm32f4xx_it.o(i.TIM3_IRQHandler)
    TIM4_IRQHandler                          0x08004515   Thumb Code    20  stm32f4xx_it.o(i.TIM4_IRQHandler)
    TIM5_IRQHandler                          0x08004531   Thumb Code    56  main.o(i.TIM5_IRQHandler)
    TIM_ARRPreloadConfig                     0x08004571   Thumb Code    20  stm32f4xx_tim.o(i.TIM_ARRPreloadConfig)
    TIM_ClearITPendingBit                    0x08004585   Thumb Code     6  stm32f4xx_tim.o(i.TIM_ClearITPendingBit)
    TIM_Cmd                                  0x0800458b   Thumb Code    20  stm32f4xx_tim.o(i.TIM_Cmd)
    TIM_EncoderInterfaceConfig               0x0800459f   Thumb Code    50  stm32f4xx_tim.o(i.TIM_EncoderInterfaceConfig)
    TIM_GetCapture3                          0x080045d1   Thumb Code     4  stm32f4xx_tim.o(i.TIM_GetCapture3)
    TIM_GetCapture4                          0x080045d5   Thumb Code     4  stm32f4xx_tim.o(i.TIM_GetCapture4)
    TIM_GetCounter                           0x080045d9   Thumb Code     4  stm32f4xx_tim.o(i.TIM_GetCounter)
    TIM_GetFlagStatus                        0x080045dd   Thumb Code    14  stm32f4xx_tim.o(i.TIM_GetFlagStatus)
    TIM_ICInit                               0x080045eb   Thumb Code   172  stm32f4xx_tim.o(i.TIM_ICInit)
    TIM_ITConfig                             0x08004697   Thumb Code    16  stm32f4xx_tim.o(i.TIM_ITConfig)
    TIM_OC1Init                              0x080046a9   Thumb Code    88  stm32f4xx_tim.o(i.TIM_OC1Init)
    TIM_OC1PreloadConfig                     0x08004709   Thumb Code    12  stm32f4xx_tim.o(i.TIM_OC1PreloadConfig)
    TIM_OC2Init                              0x08004715   Thumb Code   120  stm32f4xx_tim.o(i.TIM_OC2Init)
    TIM_OC2PreloadConfig                     0x08004795   Thumb Code    20  stm32f4xx_tim.o(i.TIM_OC2PreloadConfig)
    TIM_SetIC1Prescaler                      0x080047a9   Thumb Code    16  stm32f4xx_tim.o(i.TIM_SetIC1Prescaler)
    TIM_SetIC2Prescaler                      0x080047b9   Thumb Code    24  stm32f4xx_tim.o(i.TIM_SetIC2Prescaler)
    TIM_SetIC3Prescaler                      0x080047d1   Thumb Code    16  stm32f4xx_tim.o(i.TIM_SetIC3Prescaler)
    TIM_SetIC4Prescaler                      0x080047e1   Thumb Code    24  stm32f4xx_tim.o(i.TIM_SetIC4Prescaler)
    TIM_TimeBaseInit                         0x080047f9   Thumb Code    96  stm32f4xx_tim.o(i.TIM_TimeBaseInit)
    Time_GetSampleTime                       0x08004875   Thumb Code    52  functions.o(i.Time_GetSampleTime)
    Time_ParametersInit                      0x080048b9   Thumb Code    20  functions.o(i.Time_ParametersInit)
    Time_SampleTimeUpdate                    0x080048cd   Thumb Code     4  functions.o(i.Time_SampleTimeUpdate)
    Time_SendTimeUpdate                      0x080048d1   Thumb Code    10  functions.o(i.Time_SendTimeUpdate)
    TimerDelayConfig                         0x080048dd   Thumb Code    64  main.o(i.TimerDelayConfig)
    ToChar                                   0x08004925   Thumb Code   254  functions.o(i.ToChar)
    ToHex                                    0x08004a35   Thumb Code    14  functions.o(i.ToHex)
    ToRPM                                    0x08004a45   Thumb Code    36  functions.o(i.ToRPM)
    Trapf                                    0x08004a79   Thumb Code   198  functions.o(i.Trapf)
    Trimf                                    0x08004b51   Thumb Code   194  functions.o(i.Trimf)
    U1_SendData                              0x08004c1d   Thumb Code    32  usart_dma_config.o(i.U1_SendData)
    U6_SendData                              0x08004c41   Thumb Code    30  usart_dma_config.o(i.U6_SendData)
    USART1_Config                            0x08004c69   Thumb Code   334  usart_dma_config.o(i.USART1_Config)
    USART1_IRQHandler                        0x08004dcd   Thumb Code    50  stm32f4xx_it.o(i.USART1_IRQHandler)
    USART2_Config                            0x08004e0d   Thumb Code   334  usart_dma_config.o(i.USART2_Config)
    USART2_IRQHandler                        0x08004f71   Thumb Code    50  stm32f4xx_it.o(i.USART2_IRQHandler)
    USART6_Config                            0x08004fb1   Thumb Code   332  usart_dma_config.o(i.USART6_Config)
    USART6_IRQHandler                        0x08005111   Thumb Code    50  stm32f4xx_it.o(i.USART6_IRQHandler)
    USART_ClearFlag                          0x08005151   Thumb Code     6  stm32f4xx_usart.o(i.USART_ClearFlag)
    USART_Cmd                                0x08005157   Thumb Code    20  stm32f4xx_usart.o(i.USART_Cmd)
    USART_DMACmd                             0x0800516b   Thumb Code    16  stm32f4xx_usart.o(i.USART_DMACmd)
    USART_GetITStatus                        0x0800517b   Thumb Code    62  stm32f4xx_usart.o(i.USART_GetITStatus)
    USART_ITConfig                           0x080051b9   Thumb Code    48  stm32f4xx_usart.o(i.USART_ITConfig)
    USART_Init                               0x080051e9   Thumb Code   164  stm32f4xx_usart.o(i.USART_Init)
    USART_ReceiveData                        0x08005295   Thumb Code     8  stm32f4xx_usart.o(i.USART_ReceiveData)
    UsageFault_Handler                       0x0800529d   Thumb Code     2  stm32f4xx_it.o(i.UsageFault_Handler)
    Veh_CheckStateChange                     0x0800529f   Thumb Code    24  functions.o(i.Veh_CheckStateChange)
    Veh_GetCommandMessage                    0x080052b7   Thumb Code    50  functions.o(i.Veh_GetCommandMessage)
    Veh_ParametersInit                       0x080052e9   Thumb Code    58  functions.o(i.Veh_ParametersInit)
    Veh_UpdateMaxVelocity                    0x08005335   Thumb Code     6  functions.o(i.Veh_UpdateMaxVelocity)
    Veh_UpdateVehicleFromKey                 0x0800533d   Thumb Code   296  functions.o(i.Veh_UpdateVehicleFromKey)
    WriteToFlash                             0x08005499   Thumb Code    86  functions.o(i.WriteToFlash)
    __ARM_fpclassify                         0x080054ef   Thumb Code    48  fpclassify.o(i.__ARM_fpclassify)
    __hardfp_atan                            0x08005521   Thumb Code   632  atan.o(i.__hardfp_atan)
    __hardfp_atan2                           0x08005801   Thumb Code   426  atan2.o(i.__hardfp_atan2)
    __hardfp_cos                             0x080059f1   Thumb Code   200  cos.o(i.__hardfp_cos)
    __hardfp_fabs                            0x08005ac9   Thumb Code    20  fabs.o(i.__hardfp_fabs)
    __hardfp_log                             0x08005ae1   Thumb Code   882  log.o(i.__hardfp_log)
    __hardfp_pow                             0x08005ec9   Thumb Code  3048  pow.o(i.__hardfp_pow)
    __hardfp_sin                             0x08006b01   Thumb Code   200  sin.o(i.__hardfp_sin)
    __hardfp_sqrt                            0x08006bd9   Thumb Code   122  sqrt.o(i.__hardfp_sqrt)
    __hardfp_tan                             0x08006c59   Thumb Code   142  tan.o(i.__hardfp_tan)
    __ieee754_rem_pio2                       0x08006cf9   Thumb Code   938  rred.o(i.__ieee754_rem_pio2)
    __kernel_cos                             0x08007131   Thumb Code   322  cos_i.o(i.__kernel_cos)
    __kernel_poly                            0x080072a1   Thumb Code   248  poly.o(i.__kernel_poly)
    __kernel_sin                             0x08007399   Thumb Code   280  sin_i.o(i.__kernel_sin)
    __kernel_tan                             0x080074c9   Thumb Code   764  tan_i.o(i.__kernel_tan)
    __mathlib_dbl_underflow                  0x08007819   Thumb Code    24  dunder.o(i.__mathlib_dbl_underflow)
    atan                                     0x08007839   Thumb Code    16  atan.o(i.atan)
    fabs                                     0x08007849   Thumb Code    24  fabs.o(i.fabs)
    fix                                      0x08007861   Thumb Code    20  functions.o(i.fix)
    main                                     0x08007875   Thumb Code  1338  main.o(i.main)
    sqrt                                     0x08007dbd   Thumb Code   110  sqrt.o(i.sqrt)
    __aeabi_dneg                             0x08007e2b   Thumb Code     0  basic.o(x$fpl$basic)
    _dneg                                    0x08007e2b   Thumb Code     6  basic.o(x$fpl$basic)
    __aeabi_fneg                             0x08007e31   Thumb Code     0  basic.o(x$fpl$basic)
    _fneg                                    0x08007e31   Thumb Code     6  basic.o(x$fpl$basic)
    _dabs                                    0x08007e37   Thumb Code     6  basic.o(x$fpl$basic)
    _fabs                                    0x08007e3d   Thumb Code     6  basic.o(x$fpl$basic)
    __aeabi_d2f                              0x08007e45   Thumb Code     0  d2f.o(x$fpl$d2f)
    _d2f                                     0x08007e45   Thumb Code    98  d2f.o(x$fpl$d2f)
    __aeabi_dadd                             0x08007ea9   Thumb Code     0  daddsub_clz.o(x$fpl$dadd)
    _dadd                                    0x08007ea9   Thumb Code   332  daddsub_clz.o(x$fpl$dadd)
    __fpl_dcheck_NaN1                        0x08007ff9   Thumb Code    10  dcheck1.o(x$fpl$dcheck1)
    __fpl_dcmp_Inf                           0x08008009   Thumb Code    24  dcmpi.o(x$fpl$dcmpinf)
    __aeabi_ddiv                             0x08008021   Thumb Code     0  ddiv.o(x$fpl$ddiv)
    _ddiv                                    0x08008021   Thumb Code   552  ddiv.o(x$fpl$ddiv)
    __aeabi_cdcmpeq                          0x080082d1   Thumb Code     0  deqf.o(x$fpl$deqf)
    _dcmpeq                                  0x080082d1   Thumb Code   120  deqf.o(x$fpl$deqf)
    __aeabi_d2iz                             0x08008349   Thumb Code     0  dfix.o(x$fpl$dfix)
    _dfix                                    0x08008349   Thumb Code    94  dfix.o(x$fpl$dfix)
    __aeabi_d2uiz                            0x080083a9   Thumb Code     0  dfixu.o(x$fpl$dfixu)
    _dfixu                                   0x080083a9   Thumb Code    90  dfixu.o(x$fpl$dfixu)
    __aeabi_i2d                              0x08008403   Thumb Code     0  dflt_clz.o(x$fpl$dflt)
    _dflt                                    0x08008403   Thumb Code    46  dflt_clz.o(x$fpl$dflt)
    __aeabi_ui2d                             0x08008431   Thumb Code     0  dflt_clz.o(x$fpl$dfltu)
    _dfltu                                   0x08008431   Thumb Code    38  dflt_clz.o(x$fpl$dfltu)
    __aeabi_cdcmple                          0x08008459   Thumb Code     0  dleqf.o(x$fpl$dleqf)
    _dcmple                                  0x08008459   Thumb Code   120  dleqf.o(x$fpl$dleqf)
    __fpl_dcmple_InfNaN                      0x080084bb   Thumb Code     0  dleqf.o(x$fpl$dleqf)
    __aeabi_dmul                             0x080084d1   Thumb Code     0  dmul.o(x$fpl$dmul)
    _dmul                                    0x080084d1   Thumb Code   332  dmul.o(x$fpl$dmul)
    __fpl_dnaninf                            0x08008625   Thumb Code   156  dnaninf.o(x$fpl$dnaninf)
    __fpl_dretinf                            0x080086c1   Thumb Code    12  dretinf.o(x$fpl$dretinf)
    __aeabi_cdrcmple                         0x080086cd   Thumb Code     0  drleqf.o(x$fpl$drleqf)
    _drcmple                                 0x080086cd   Thumb Code   108  drleqf.o(x$fpl$drleqf)
    __aeabi_drsub                            0x08008739   Thumb Code     0  daddsub_clz.o(x$fpl$drsb)
    _drsb                                    0x08008739   Thumb Code    22  daddsub_clz.o(x$fpl$drsb)
    _dsqrt                                   0x08008751   Thumb Code   404  dsqrt_umaal.o(x$fpl$dsqrt)
    __aeabi_dsub                             0x080088e9   Thumb Code     0  daddsub_clz.o(x$fpl$dsub)
    _dsub                                    0x080088e9   Thumb Code   464  daddsub_clz.o(x$fpl$dsub)
    __aeabi_f2d                              0x08008abd   Thumb Code     0  f2d.o(x$fpl$f2d)
    _f2d                                     0x08008abd   Thumb Code    86  f2d.o(x$fpl$f2d)
    __fpl_fnaninf                            0x08008b13   Thumb Code   140  fnaninf.o(x$fpl$fnaninf)
    _fp_init                                 0x08008b9f   Thumb Code    10  fpinit.o(x$fpl$fpinit)
    __fplib_config_fpu_vfp                   0x08008ba7   Thumb Code     0  fpinit.o(x$fpl$fpinit)
    __fplib_config_pureend_doubles           0x08008ba7   Thumb Code     0  fpinit.o(x$fpl$fpinit)
    __fpl_fretinf                            0x08008ba9   Thumb Code    10  fretinf.o(x$fpl$fretinf)
    __fpl_return_NaN                         0x08008bb3   Thumb Code   100  retnan.o(x$fpl$retnan)
    __ARM_scalbn                             0x08008c17   Thumb Code    92  scalbn.o(x$fpl$scalbn)
    __fpl_cmpreturn                          0x08008c73   Thumb Code    48  trapv.o(x$fpl$trapveneer)
    __I$use$fp                               0x08008ca2   Number         0  usenofp.o(x$fpl$usenofp)
    __mathlib_zero                           0x08008e30   Data           8  qnan.o(.constdata)
    Region$$Table$$Base                      0x08008f88   Number         0  anon$$obj.o(Region$$Table)
    Region$$Table$$Limit                     0x08008fa8   Number         0  anon$$obj.o(Region$$Table)
    SystemCoreClock                          0x20000000   Data           4  system_stm32f4xx.o(.data)
    AHBPrescTable                            0x20000004   Data          16  system_stm32f4xx.o(.data)
    Main_NVIC_Struct                         0x20000014   Data           4  main.o(.data)
    temp3                                    0x20000018   Data           1  stm32f4xx_it.o(.data)
    temp2                                    0x20000019   Data           1  stm32f4xx_it.o(.data)
    temp1                                    0x2000001a   Data           1  stm32f4xx_it.o(.data)
    En_NVIC_Struct                           0x2000001c   Data           4  encoder.o(.data)
    En_GPIO_Struct                           0x20000020   Data           8  encoder.o(.data)
    US_NVIC_Struct                           0x20000028   Data           4  usart_dma_config.o(.data)
    U2_TxBuffer                              0x2000002c   Data           5  usart_dma_config.o(.data)
    US_GPIO_Struct                           0x20000034   Data           8  usart_dma_config.o(.data)
    F_GPIO_Struct                            0x20000040   Data           8  functions.o(.data)
    NB                                       0x20000048   Data           8  functions.o(.data)
    NM                                       0x20000050   Data           8  functions.o(.data)
    NS                                       0x20000058   Data           8  functions.o(.data)
    ZE                                       0x20000060   Data           8  functions.o(.data)
    PS                                       0x20000068   Data           8  functions.o(.data)
    PM                                       0x20000070   Data           8  functions.o(.data)
    PB                                       0x20000078   Data           8  functions.o(.data)
    Srf05_NVIC_Struct                        0x20000080   Data           4  srf05.o(.data)
    Srf05_GPIO_Struct                        0x20000084   Data           8  srf05.o(.data)
    Main_TIM_Struct                          0x200000a0   Data          12  main.o(.bss)
    Srf05_Struct                             0x200000ac   Data          24  main.o(.bss)
    Mid                                      0x200000c8   Data          16  main.o(.bss)
    Left                                     0x200000d8   Data          16  main.o(.bss)
    Right                                    0x200000e8   Data          16  main.o(.bss)
    Back                                     0x200000f8   Data          16  main.o(.bss)
    En_TIM_BaseStruct                        0x20000108   Data          12  encoder.o(.bss)
    En_TIM_OCStruct                          0x20000114   Data          20  encoder.o(.bss)
    US_DMA_Struct                            0x20000128   Data          60  usart_dma_config.o(.bss)
    US_USART_Struct                          0x20000164   Data          16  usart_dma_config.o(.bss)
    U1_TxBuffer                              0x20000174   Data          20  usart_dma_config.o(.bss)
    U1_RxBuffer                              0x20000188   Data         100  usart_dma_config.o(.bss)
    U2_RxBuffer                              0x200001ec   Data        1000  usart_dma_config.o(.bss)
    U6_TxBuffer                              0x200005d4   Data         500  usart_dma_config.o(.bss)
    U6_RxBuffer                              0x200007c8   Data        1000  usart_dma_config.o(.bss)
    VehStt                                   0x20000bb0   Data          13  functions.o(.bss)
    M1                                       0x20000bc0   Data          88  functions.o(.bss)
    M2                                       0x20000c18   Data          88  functions.o(.bss)
    GPS_NEO                                  0x20000c70   Data       49952  functions.o(.bss)
    Mag                                      0x2000cf90   Data          72  functions.o(.bss)
    Timer                                    0x2000cfd8   Data          32  functions.o(.bss)
    Flash                                    0x2000cff8   Data        2004  functions.o(.bss)
    In1_NS                                   0x2000d7d0   Data          24  functions.o(.bss)
    In1_ZE                                   0x2000d7e8   Data          24  functions.o(.bss)
    In1_PS                                   0x2000d800   Data          24  functions.o(.bss)
    In2_ZE                                   0x2000d818   Data          24  functions.o(.bss)
    In1_NB                                   0x2000d830   Data          32  functions.o(.bss)
    In1_PB                                   0x2000d850   Data          32  functions.o(.bss)
    In2_NE                                   0x2000d870   Data          32  functions.o(.bss)
    In2_PO                                   0x2000d890   Data          32  functions.o(.bss)
    TempBuffer                               0x2000d8b0   Data          60  functions.o(.bss)
    U2                                       0x2000d8ec   Data        1500  functions.o(.bss)
    U6                                       0x2000dec8   Data        1500  functions.o(.bss)
    Veh                                      0x2000e4a8   Data          72  functions.o(.bss)
    Veh_Error                                0x2000e4f0   Data          21  functions.o(.bss)
    Srf05_TIM_TimeBaseStruct                 0x2000e508   Data          12  srf05.o(.bss)
    Srf05_TIM_ICStruct                       0x2000e514   Data          10  srf05.o(.bss)
    selfPosition                             0x2000e520   Data          56  twowheelrobot.o(.bss)
    __libspace_start                         0x2000e558   Data          96  libspace.o(.bss)
    __temporary_stack_top$libspace           0x2000e5b8   Data           0  libspace.o(.bss)



==============================================================================

Memory Map of the image

  Image Entry point : 0x08000199

  Load Region LR_IROM1 (Base: 0x08000000, Size: 0x00009044, Max: 0x00080000, ABSOLUTE)

    Execution Region ER_IROM1 (Base: 0x08000000, Size: 0x00008fa8, Max: 0x00080000, ABSOLUTE)

    Base Addr    Size         Type   Attr      Idx    E Section Name        Object

    0x08000000   0x00000198   Data   RO         1461    RESET               startup_stm32f411xe.o
    0x08000198   0x00000008   Code   RO         3289  * !!!main             c_w.l(__main.o)
    0x080001a0   0x00000034   Code   RO         3644    !!!scatter          c_w.l(__scatter.o)
    0x080001d4   0x0000001a   Code   RO         3646    !!handler_copy      c_w.l(__scatter_copy.o)
    0x080001ee   0x00000002   PAD
    0x080001f0   0x0000001c   Code   RO         3648    !!handler_zi        c_w.l(__scatter_zi.o)
    0x0800020c   0x00000002   Code   RO         3516    .ARM.Collect$$libinit$$00000000  c_w.l(libinit.o)
    0x0800020e   0x00000004   Code   RO         3521    .ARM.Collect$$libinit$$00000001  c_w.l(libinit2.o)
    0x08000212   0x00000000   Code   RO         3525    .ARM.Collect$$libinit$$00000008  c_w.l(libinit2.o)
    0x08000212   0x00000000   Code   RO         3527    .ARM.Collect$$libinit$$0000000A  c_w.l(libinit2.o)
    0x08000212   0x00000000   Code   RO         3529    .ARM.Collect$$libinit$$0000000C  c_w.l(libinit2.o)
    0x08000212   0x00000000   Code   RO         3532    .ARM.Collect$$libinit$$0000000F  c_w.l(libinit2.o)
    0x08000212   0x00000000   Code   RO         3534    .ARM.Collect$$libinit$$00000011  c_w.l(libinit2.o)
    0x08000212   0x00000000   Code   RO         3536    .ARM.Collect$$libinit$$00000013  c_w.l(libinit2.o)
    0x08000212   0x00000000   Code   RO         3538    .ARM.Collect$$libinit$$00000015  c_w.l(libinit2.o)
    0x08000212   0x00000000   Code   RO         3540    .ARM.Collect$$libinit$$00000017  c_w.l(libinit2.o)
    0x08000212   0x00000000   Code   RO         3542    .ARM.Collect$$libinit$$00000019  c_w.l(libinit2.o)
    0x08000212   0x00000000   Code   RO         3544    .ARM.Collect$$libinit$$0000001B  c_w.l(libinit2.o)
    0x08000212   0x00000000   Code   RO         3546    .ARM.Collect$$libinit$$0000001D  c_w.l(libinit2.o)
    0x08000212   0x00000000   Code   RO         3548    .ARM.Collect$$libinit$$0000001F  c_w.l(libinit2.o)
    0x08000212   0x00000000   Code   RO         3550    .ARM.Collect$$libinit$$00000021  c_w.l(libinit2.o)
    0x08000212   0x00000000   Code   RO         3552    .ARM.Collect$$libinit$$00000023  c_w.l(libinit2.o)
    0x08000212   0x00000000   Code   RO         3556    .ARM.Collect$$libinit$$0000002A  c_w.l(libinit2.o)
    0x08000212   0x00000000   Code   RO         3558    .ARM.Collect$$libinit$$0000002C  c_w.l(libinit2.o)
    0x08000212   0x00000000   Code   RO         3560    .ARM.Collect$$libinit$$0000002E  c_w.l(libinit2.o)
    0x08000212   0x00000000   Code   RO         3562    .ARM.Collect$$libinit$$00000030  c_w.l(libinit2.o)
    0x08000212   0x00000002   Code   RO         3563    .ARM.Collect$$libinit$$00000031  c_w.l(libinit2.o)
    0x08000214   0x00000002   Code   RO         3585    .ARM.Collect$$libshutdown$$00000000  c_w.l(libshutdown.o)
    0x08000216   0x00000000   Code   RO         3599    .ARM.Collect$$libshutdown$$00000003  c_w.l(libshutdown2.o)
    0x08000216   0x00000000   Code   RO         3602    .ARM.Collect$$libshutdown$$00000006  c_w.l(libshutdown2.o)
    0x08000216   0x00000000   Code   RO         3605    .ARM.Collect$$libshutdown$$00000009  c_w.l(libshutdown2.o)
    0x08000216   0x00000000   Code   RO         3607    .ARM.Collect$$libshutdown$$0000000B  c_w.l(libshutdown2.o)
    0x08000216   0x00000000   Code   RO         3610    .ARM.Collect$$libshutdown$$0000000E  c_w.l(libshutdown2.o)
    0x08000216   0x00000002   Code   RO         3611    .ARM.Collect$$libshutdown$$0000000F  c_w.l(libshutdown2.o)
    0x08000218   0x00000000   Code   RO         3437    .ARM.Collect$$rtentry$$00000000  c_w.l(rtentry.o)
    0x08000218   0x00000000   Code   RO         3483    .ARM.Collect$$rtentry$$00000002  c_w.l(rtentry2.o)
    0x08000218   0x00000006   Code   RO         3495    .ARM.Collect$$rtentry$$00000004  c_w.l(rtentry4.o)
    0x0800021e   0x00000000   Code   RO         3485    .ARM.Collect$$rtentry$$00000009  c_w.l(rtentry2.o)
    0x0800021e   0x00000004   Code   RO         3486    .ARM.Collect$$rtentry$$0000000A  c_w.l(rtentry2.o)
    0x08000222   0x00000000   Code   RO         3488    .ARM.Collect$$rtentry$$0000000C  c_w.l(rtentry2.o)
    0x08000222   0x00000008   Code   RO         3489    .ARM.Collect$$rtentry$$0000000D  c_w.l(rtentry2.o)
    0x0800022a   0x00000002   Code   RO         3519    .ARM.Collect$$rtexit$$00000000  c_w.l(rtexit.o)
    0x0800022c   0x00000000   Code   RO         3567    .ARM.Collect$$rtexit$$00000002  c_w.l(rtexit2.o)
    0x0800022c   0x00000004   Code   RO         3568    .ARM.Collect$$rtexit$$00000003  c_w.l(rtexit2.o)
    0x08000230   0x00000006   Code   RO         3569    .ARM.Collect$$rtexit$$00000004  c_w.l(rtexit2.o)
    0x08000236   0x00000002   PAD
    0x08000238   0x00000040   Code   RO         1462    .text               startup_stm32f411xe.o
    0x08000278   0x00000006   Code   RO         3287    .text               c_w.l(heapauxi.o)
    0x0800027e   0x00000016   Code   RO         3438    .text               c_w.l(_rserrno.o)
    0x08000294   0x00000008   Code   RO         3500    .text               c_w.l(rt_errno_addr_intlibspace.o)
    0x0800029c   0x00000008   Code   RO         3504    .text               c_w.l(libspace.o)
    0x080002a4   0x0000004a   Code   RO         3507    .text               c_w.l(sys_stackheap_outer.o)
    0x080002ee   0x0000000c   Code   RO         3509    .text               c_w.l(exit.o)
    0x080002fa   0x00000002   PAD
    0x080002fc   0x0000000c   Code   RO         3577    .text               c_w.l(sys_exit.o)
    0x08000308   0x00000002   Code   RO         3588    .text               c_w.l(use_no_semi.o)
    0x0800030a   0x00000000   Code   RO         3590    .text               c_w.l(indicate_semi.o)
    0x0800030a   0x00000002   Code   RO          325    i.BusFault_Handler  stm32f4xx_it.o
    0x0800030c   0x0000003e   Code   RO          693    i.Convert4BytesToWordData  functions.o
    0x0800034a   0x00000012   Code   RO         1301    i.Core_Delay_Us     srf05.o
    0x0800035c   0x00000064   Code   RO          326    i.DMA1_Stream5_IRQHandler  stm32f4xx_it.o
    0x080003c0   0x00000738   Code   RO          327    i.DMA2_Stream2_IRQHandler  stm32f4xx_it.o
    0x08000af8   0x00000094   Code   RO          328    i.DMA2_Stream5_IRQHandler  stm32f4xx_it.o
    0x08000b8c   0x0000002c   Code   RO         1709    i.DMA_ClearFlag     stm32f4xx_dma.o
    0x08000bb8   0x0000002c   Code   RO         1710    i.DMA_ClearITPendingBit  stm32f4xx_dma.o
    0x08000be4   0x00000014   Code   RO         1711    i.DMA_Cmd           stm32f4xx_dma.o
    0x08000bf8   0x00000034   Code   RO         1720    i.DMA_GetFlagStatus  stm32f4xx_dma.o
    0x08000c2c   0x0000002c   Code   RO         1722    i.DMA_ITConfig      stm32f4xx_dma.o
    0x08000c58   0x00000054   Code   RO         1723    i.DMA_Init          stm32f4xx_dma.o
    0x08000cac   0x00000002   Code   RO          329    i.DebugMon_Handler  stm32f4xx_it.o
    0x08000cae   0x00000002   PAD
    0x08000cb0   0x00000490   Code   RO          694    i.Defuzzification_Max_Min  functions.o
    0x08001140   0x0000007c   Code   RO          695    i.Degree_To_Degree  functions.o
    0x080011bc   0x00000034   Code   RO          476    i.DirPinConfig      encoder.o
    0x080011f0   0x0000001e   Code   RO          477    i.Encoder_Config    encoder.o
    0x0800120e   0x00000018   Code   RO          696    i.EraseMemory       functions.o
    0x08001226   0x0000000a   Code   RO          697    i.Error_AppendError  functions.o
    0x08001230   0x00000006   Code   RO          698    i.Error_ResetIndex  functions.o
    0x08001236   0x00000002   PAD
    0x08001238   0x0000006c   Code   RO         3036    i.FLASH_EraseSector  stm32f4xx_flash.o
    0x080012a4   0x0000003c   Code   RO         3038    i.FLASH_GetStatus   stm32f4xx_flash.o
    0x080012e0   0x00000010   Code   RO         3042    i.FLASH_Lock        stm32f4xx_flash.o
    0x080012f0   0x0000003c   Code   RO         3066    i.FLASH_ProgramWord  stm32f4xx_flash.o
    0x0800132c   0x00000024   Code   RO         3068    i.FLASH_Unlock      stm32f4xx_flash.o
    0x08001350   0x0000001e   Code   RO         3069    i.FLASH_WaitForLastOperation  stm32f4xx_flash.o
    0x0800136e   0x0000002a   Code   RO          699    i.FeedBack          functions.o
    0x08001398   0x00000044   Code   RO          700    i.Fuzzy_Max         functions.o
    0x080013dc   0x0000003a   Code   RO          701    i.Fuzzy_Min         functions.o
    0x08001416   0x00000002   PAD
    0x08001418   0x000001cc   Code   RO          702    i.Fuzzy_ParametersInit  functions.o
    0x080015e4   0x000000a2   Code   RO         1842    i.GPIO_Init         stm32f4xx_gpio.o
    0x08001686   0x00000020   Code   RO         1843    i.GPIO_PinAFConfig  stm32f4xx_gpio.o
    0x080016a6   0x0000000e   Code   RO         1846    i.GPIO_ReadInputDataBit  stm32f4xx_gpio.o
    0x080016b4   0x0000000e   Code   RO         1848    i.GPIO_ReadOutputDataBit  stm32f4xx_gpio.o
    0x080016c2   0x00000004   Code   RO         1849    i.GPIO_ResetBits    stm32f4xx_gpio.o
    0x080016c6   0x00000004   Code   RO         1850    i.GPIO_SetBits      stm32f4xx_gpio.o
    0x080016ca   0x00000002   PAD
    0x080016cc   0x00000048   Code   RO          703    i.GPS_ClearPathBuffer  functions.o
    0x08001714   0x00000148   Code   RO          705    i.GPS_GetLLQMessage  functions.o
    0x0800185c   0x000000ac   Code   RO          706    i.GPS_GetLatFromString  functions.o
    0x08001908   0x0000009c   Code   RO          707    i.GPS_GetLonFromString  functions.o
    0x080019a4   0x0000001a   Code   RO          709    i.GPS_HeaderCompare  functions.o
    0x080019be   0x00000002   PAD
    0x080019c0   0x00000078   Code   RO          710    i.GPS_LLToDegree    functions.o
    0x08001a38   0x0000057c   Code   RO          711    i.GPS_LatLonToUTM   functions.o
    0x08001fb4   0x0000005c   Code   RO          712    i.GPS_ParametersInit  functions.o
    0x08002010   0x0000015a   Code   RO          713    i.GPS_PathPlanning  functions.o
    0x0800216a   0x00000002   PAD
    0x0800216c   0x000000a4   Code   RO          714    i.GPS_SavePathCoordinateToFlash  functions.o
    0x08002210   0x00000398   Code   RO          715    i.GPS_StanleyControl  functions.o
    0x080025a8   0x0000000a   Code   RO          716    i.GPS_UpdateParameters  functions.o
    0x080025b2   0x00000002   PAD
    0x080025b4   0x00000078   Code   RO          717    i.GPS_UpdatePathCoordinate  functions.o
    0x0800262c   0x00000084   Code   RO          718    i.GPS_UpdatePathYaw  functions.o
    0x080026b0   0x00000068   Code   RO         1365    i.GetAFFromTIM      stm32f411_rccenable.o
    0x08002718   0x00000070   Code   RO         1366    i.GetIRQHandlerFromTIMxCC  stm32f411_rccenable.o
    0x08002788   0x00000060   Code   RO          719    i.GetMessageInfo    functions.o
    0x080027e8   0x000000e0   Code   RO          720    i.GetNbOfReceiveHeader  functions.o
    0x080028c8   0x00000090   Code   RO         1367    i.GetPinSourceFromGPIOPin  stm32f411_rccenable.o
    0x08002958   0x0000017c   Code   RO          721    i.GetValueFromString  functions.o
    0x08002ad4   0x00000124   Code   RO          330    i.GetVehicleVelocity  stm32f4xx_it.o
    0x08002bf8   0x00000002   Code   RO          331    i.HardFault_Handler  stm32f4xx_it.o
    0x08002bfa   0x00000002   PAD
    0x08002bfc   0x00000094   Code   RO          723    i.IMU_GetValueFromMessage  functions.o
    0x08002c90   0x00000028   Code   RO          724    i.IMU_ParametesInit  functions.o
    0x08002cb8   0x00000008   Code   RO          725    i.IMU_UpdateFuzzyCoefficients  functions.o
    0x08002cc0   0x000000e4   Code   RO          726    i.IMU_UpdateFuzzyInput  functions.o
    0x08002da4   0x0000000a   Code   RO          727    i.IMU_UpdatePreAngle  functions.o
    0x08002dae   0x00000022   Code   RO          728    i.IMU_UpdateSetAngle  functions.o
    0x08002dd0   0x0000002e   Code   RO          729    i.IsCorrectMessage  functions.o
    0x08002dfe   0x00000002   PAD
    0x08002e00   0x0000001c   Code   RO          730    i.IsDataTransferCompleted  functions.o
    0x08002e1c   0x00000044   Code   RO          731    i.IsDouble          functions.o
    0x08002e60   0x0000000c   Code   RO          732    i.IsValidData       functions.o
    0x08002e6c   0x00000016   Code   RO          733    i.LRCCalculate      functions.o
    0x08002e82   0x00000018   Code   RO          736    i.LengthOfLine      functions.o
    0x08002e9a   0x00000002   PAD
    0x08002e9c   0x0000000c   Code   RO          478    i.M1_Backward       encoder.o
    0x08002ea8   0x000000b4   Code   RO          479    i.M1_Encoder_Config  encoder.o
    0x08002f5c   0x0000000c   Code   RO          480    i.M1_Forward        encoder.o
    0x08002f68   0x0000000c   Code   RO          481    i.M2_Backward       encoder.o
    0x08002f74   0x000000b4   Code   RO          482    i.M2_Encoder_Config  encoder.o
    0x08003028   0x0000000c   Code   RO          483    i.M2_Forward        encoder.o
    0x08003034   0x00000002   Code   RO          332    i.MemManage_Handler  stm32f4xx_it.o
    0x08003036   0x00000002   Code   RO          333    i.NMI_Handler       stm32f4xx_it.o
    0x08003038   0x00000064   Code   RO         1469    i.NVIC_Init         misc.o
    0x0800309c   0x00000014   Code   RO         1470    i.NVIC_PriorityGroupConfig  misc.o
    0x080030b0   0x0000015c   Code   RO          737    i.PID_Compute       functions.o
    0x0800320c   0x00000034   Code   RO          738    i.PID_ParametersInitial  functions.o
    0x08003240   0x00000006   Code   RO          739    i.PID_ParametersUpdate  functions.o
    0x08003246   0x00000002   PAD
    0x08003248   0x000000b4   Code   RO          133    i.PID_ReadParametersFromFlash  main.o
    0x080032fc   0x0000000a   Code   RO          740    i.PID_ResetEncoder  functions.o
    0x08003306   0x00000002   PAD
    0x08003308   0x0000001c   Code   RO          741    i.PID_ResetPID      functions.o
    0x08003324   0x000000e4   Code   RO          742    i.PID_SavePIDParaToFlash  functions.o
    0x08003408   0x00000004   Code   RO          743    i.PID_UpdateEnc     functions.o
    0x0800340c   0x00000006   Code   RO          744    i.PID_UpdateSetVel  functions.o
    0x08003412   0x00000002   PAD
    0x08003414   0x000000a4   Code   RO          484    i.PWM_Config        encoder.o
    0x080034b8   0x000000c4   Code   RO          135    i.Parameters_Init   main.o
    0x0800357c   0x00000002   Code   RO          334    i.PendSV_Handler    stm32f4xx_it.o
    0x0800357e   0x00000002   PAD
    0x08003580   0x00000044   Code   RO          136    i.Peripheral_Config  main.o
    0x080035c4   0x0000007c   Code   RO          745    i.Pi_To_Pi          functions.o
    0x08003640   0x00000018   Code   RO         2171    i.RCC_AHB1PeriphClockCmd  stm32f4xx_rcc.o
    0x08003658   0x00000018   Code   RO         2177    i.RCC_APB1PeriphClockCmd  stm32f4xx_rcc.o
    0x08003670   0x00000018   Code   RO         2180    i.RCC_APB2PeriphClockCmd  stm32f4xx_rcc.o
    0x08003688   0x00000090   Code   RO         1369    i.RCC_GPIOxClockCmd  stm32f411_rccenable.o
    0x08003718   0x00000094   Code   RO         2189    i.RCC_GetClocksFreq  stm32f4xx_rcc.o
    0x080037ac   0x000000c0   Code   RO         1371    i.RCC_TIMxClockCmd  stm32f411_rccenable.o
    0x0800386c   0x0000003c   Code   RO          746    i.ReadFromFlash     functions.o
    0x080038a8   0x00000068   Code   RO          335    i.Reset_Motor       stm32f4xx_it.o
    0x08003910   0x0000000e   Code   RO          485    i.Robot_AntiClockwise  encoder.o
    0x0800391e   0x0000000e   Code   RO          486    i.Robot_Backward    encoder.o
    0x0800392c   0x0000000e   Code   RO          487    i.Robot_Clockwise   encoder.o
    0x0800393a   0x0000000e   Code   RO          488    i.Robot_Forward     encoder.o
    0x08003948   0x0000008c   Code   RO          489    i.Robot_Run         encoder.o
    0x080039d4   0x00000002   Code   RO          336    i.SVC_Handler       stm32f4xx_it.o
    0x080039d6   0x00000002   PAD
    0x080039d8   0x00000034   Code   RO          337    i.SaveDataToInternalFlash  stm32f4xx_it.o
    0x08003a0c   0x0000003c   Code   RO         1430    i.Self_ParametersInit  twowheelrobot.o
    0x08003a48   0x00000270   Code   RO          137    i.SendData          main.o
    0x08003cb8   0x000001bc   Code   RO          138    i.SendStatusData    main.o
    0x08003e74   0x00000074   Code   RO            4    i.SetSysClock       system_stm32f4xx.o
    0x08003ee8   0x00000038   Code   RO          139    i.Srf05_BackEnd     main.o
    0x08003f20   0x00000006   Code   RO         1302    i.Srf05_ClearFlag   srf05.o
    0x08003f26   0x00000002   PAD
    0x08003f28   0x00000018   Code   RO         1303    i.Srf05_FirstInit   srf05.o
    0x08003f40   0x000000d4   Code   RO         1304    i.Srf05_Initial     srf05.o
    0x08004014   0x00000038   Code   RO          140    i.Srf05_LeftFront   main.o
    0x0800404c   0x00000038   Code   RO          141    i.Srf05_MidFront    main.o
    0x08004084   0x00000034   Code   RO          142    i.Srf05_RightFront  main.o
    0x080040b8   0x00000006   Code   RO         1306    i.Srf05_SetFlag     srf05.o
    0x080040be   0x00000002   PAD
    0x080040c0   0x00000034   Code   RO          143    i.Srf05_StartSensorBack  main.o
    0x080040f4   0x00000034   Code   RO          144    i.Srf05_StartSensorLeft  main.o
    0x08004128   0x00000034   Code   RO          145    i.Srf05_StartSensorMid  main.o
    0x0800415c   0x00000034   Code   RO          146    i.Srf05_StartSensorRight  main.o
    0x08004190   0x0000003c   Code   RO          147    i.StartTimer        main.o
    0x080041cc   0x00000004   Code   RO          749    i.Status_CheckStatus  functions.o
    0x080041d0   0x0000001c   Code   RO          750    i.Status_ParametersInit  functions.o
    0x080041ec   0x00000004   Code   RO          751    i.Status_UpdateStatus  functions.o
    0x080041f0   0x00000018   Code   RO          148    i.StopTimer         main.o
    0x08004208   0x00000010   Code   RO          490    i.Stop_Motor        encoder.o
    0x08004218   0x0000001c   Code   RO          752    i.StringHeaderCompare  functions.o
    0x08004234   0x00000078   Code   RO          338    i.SysTick_Handler   stm32f4xx_it.o
    0x080042ac   0x0000005c   Code   RO            6    i.SystemInit        system_stm32f4xx.o
    0x08004308   0x0000002e   Code   RO         2479    i.TI1_Config        stm32f4xx_tim.o
    0x08004336   0x00000036   Code   RO         2480    i.TI2_Config        stm32f4xx_tim.o
    0x0800436c   0x0000018c   Code   RO          339    i.TIM2_IRQHandler   stm32f4xx_it.o
    0x080044f8   0x0000001c   Code   RO          340    i.TIM3_IRQHandler   stm32f4xx_it.o
    0x08004514   0x0000001c   Code   RO          341    i.TIM4_IRQHandler   stm32f4xx_it.o
    0x08004530   0x00000040   Code   RO          149    i.TIM5_IRQHandler   main.o
    0x08004570   0x00000014   Code   RO         2481    i.TIM_ARRPreloadConfig  stm32f4xx_tim.o
    0x08004584   0x00000006   Code   RO         2488    i.TIM_ClearITPendingBit  stm32f4xx_tim.o
    0x0800458a   0x00000014   Code   RO         2493    i.TIM_Cmd           stm32f4xx_tim.o
    0x0800459e   0x00000032   Code   RO         2502    i.TIM_EncoderInterfaceConfig  stm32f4xx_tim.o
    0x080045d0   0x00000004   Code   RO         2510    i.TIM_GetCapture3   stm32f4xx_tim.o
    0x080045d4   0x00000004   Code   RO         2511    i.TIM_GetCapture4   stm32f4xx_tim.o
    0x080045d8   0x00000004   Code   RO         2512    i.TIM_GetCounter    stm32f4xx_tim.o
    0x080045dc   0x0000000e   Code   RO         2513    i.TIM_GetFlagStatus  stm32f4xx_tim.o
    0x080045ea   0x000000ac   Code   RO         2516    i.TIM_ICInit        stm32f4xx_tim.o
    0x08004696   0x00000010   Code   RO         2518    i.TIM_ITConfig      stm32f4xx_tim.o
    0x080046a6   0x00000002   PAD
    0x080046a8   0x00000060   Code   RO         2522    i.TIM_OC1Init       stm32f4xx_tim.o
    0x08004708   0x0000000c   Code   RO         2525    i.TIM_OC1PreloadConfig  stm32f4xx_tim.o
    0x08004714   0x00000080   Code   RO         2527    i.TIM_OC2Init       stm32f4xx_tim.o
    0x08004794   0x00000014   Code   RO         2530    i.TIM_OC2PreloadConfig  stm32f4xx_tim.o
    0x080047a8   0x00000010   Code   RO         2560    i.TIM_SetIC1Prescaler  stm32f4xx_tim.o
    0x080047b8   0x00000018   Code   RO         2561    i.TIM_SetIC2Prescaler  stm32f4xx_tim.o
    0x080047d0   0x00000010   Code   RO         2562    i.TIM_SetIC3Prescaler  stm32f4xx_tim.o
    0x080047e0   0x00000018   Code   RO         2563    i.TIM_SetIC4Prescaler  stm32f4xx_tim.o
    0x080047f8   0x0000007c   Code   RO         2565    i.TIM_TimeBaseInit  stm32f4xx_tim.o
    0x08004874   0x00000044   Code   RO          753    i.Time_GetSampleTime  functions.o
    0x080048b8   0x00000014   Code   RO          754    i.Time_ParametersInit  functions.o
    0x080048cc   0x00000004   Code   RO          755    i.Time_SampleTimeUpdate  functions.o
    0x080048d0   0x0000000a   Code   RO          756    i.Time_SendTimeUpdate  functions.o
    0x080048da   0x00000002   PAD
    0x080048dc   0x00000048   Code   RO          150    i.TimerDelayConfig  main.o
    0x08004924   0x00000110   Code   RO          757    i.ToChar            functions.o
    0x08004a34   0x0000000e   Code   RO          759    i.ToHex             functions.o
    0x08004a42   0x00000002   PAD
    0x08004a44   0x00000034   Code   RO          760    i.ToRPM             functions.o
    0x08004a78   0x000000d8   Code   RO          762    i.Trapf             functions.o
    0x08004b50   0x000000cc   Code   RO          764    i.Trimf             functions.o
    0x08004c1c   0x00000024   Code   RO          627    i.U1_SendData       usart_dma_config.o
    0x08004c40   0x00000028   Code   RO          629    i.U6_SendData       usart_dma_config.o
    0x08004c68   0x00000164   Code   RO          630    i.USART1_Config     usart_dma_config.o
    0x08004dcc   0x00000040   Code   RO          342    i.USART1_IRQHandler  stm32f4xx_it.o
    0x08004e0c   0x00000164   Code   RO          631    i.USART2_Config     usart_dma_config.o
    0x08004f70   0x00000040   Code   RO          343    i.USART2_IRQHandler  stm32f4xx_it.o
    0x08004fb0   0x00000160   Code   RO          632    i.USART6_Config     usart_dma_config.o
    0x08005110   0x00000040   Code   RO          344    i.USART6_IRQHandler  stm32f4xx_it.o
    0x08005150   0x00000006   Code   RO         1517    i.USART_ClearFlag   stm32f4xx_usart.o
    0x08005156   0x00000014   Code   RO         1521    i.USART_Cmd         stm32f4xx_usart.o
    0x0800516a   0x00000010   Code   RO         1522    i.USART_DMACmd      stm32f4xx_usart.o
    0x0800517a   0x0000003e   Code   RO         1525    i.USART_GetITStatus  stm32f4xx_usart.o
    0x080051b8   0x00000030   Code   RO         1527    i.USART_ITConfig    stm32f4xx_usart.o
    0x080051e8   0x000000ac   Code   RO         1528    i.USART_Init        stm32f4xx_usart.o
    0x08005294   0x00000008   Code   RO         1535    i.USART_ReceiveData  stm32f4xx_usart.o
    0x0800529c   0x00000002   Code   RO          345    i.UsageFault_Handler  stm32f4xx_it.o
    0x0800529e   0x00000018   Code   RO          766    i.Veh_CheckStateChange  functions.o
    0x080052b6   0x00000032   Code   RO          767    i.Veh_GetCommandMessage  functions.o
    0x080052e8   0x0000004c   Code   RO          768    i.Veh_ParametersInit  functions.o
    0x08005334   0x00000006   Code   RO          769    i.Veh_UpdateMaxVelocity  functions.o
    0x0800533a   0x00000002   PAD
    0x0800533c   0x0000015c   Code   RO          770    i.Veh_UpdateVehicleFromKey  functions.o
    0x08005498   0x00000056   Code   RO          771    i.WriteToFlash      functions.o
    0x080054ee   0x00000030   Code   RO         3460    i.__ARM_fpclassify  m_wm.l(fpclassify.o)
    0x0800551e   0x00000002   PAD
    0x08005520   0x000002e0   Code   RO         3329    i.__hardfp_atan     m_wm.l(atan.o)
    0x08005800   0x000001f0   Code   RO         3343    i.__hardfp_atan2    m_wm.l(atan2.o)
    0x080059f0   0x000000d8   Code   RO         3355    i.__hardfp_cos      m_wm.l(cos.o)
    0x08005ac8   0x00000014   Code   RO         3367    i.__hardfp_fabs     m_wm.l(fabs.o)
    0x08005adc   0x00000004   PAD
    0x08005ae0   0x000003e4   Code   RO         3373    i.__hardfp_log      m_wm.l(log.o)
    0x08005ec4   0x00000004   PAD
    0x08005ec8   0x00000c38   Code   RO         3387    i.__hardfp_pow      m_wm.l(pow.o)
    0x08006b00   0x000000d8   Code   RO         3401    i.__hardfp_sin      m_wm.l(sin.o)
    0x08006bd8   0x0000007a   Code   RO         3413    i.__hardfp_sqrt     m_wm.l(sqrt.o)
    0x08006c52   0x00000006   PAD
    0x08006c58   0x000000a0   Code   RO         3425    i.__hardfp_tan      m_wm.l(tan.o)
    0x08006cf8   0x00000438   Code   RO         3465    i.__ieee754_rem_pio2  m_wm.l(rred.o)
    0x08007130   0x00000170   Code   RO         3455    i.__kernel_cos      m_wm.l(cos_i.o)
    0x080072a0   0x000000f8   Code   RO         3462    i.__kernel_poly     m_wm.l(poly.o)
    0x08007398   0x00000130   Code   RO         3470    i.__kernel_sin      m_wm.l(sin_i.o)
    0x080074c8   0x00000350   Code   RO         3476    i.__kernel_tan      m_wm.l(tan_i.o)
    0x08007818   0x00000020   Code   RO         3458    i.__mathlib_dbl_underflow  m_wm.l(dunder.o)
    0x08007838   0x00000010   Code   RO         3331    i.atan              m_wm.l(atan.o)
    0x08007848   0x00000018   Code   RO         3369    i.fabs              m_wm.l(fabs.o)
    0x08007860   0x00000014   Code   RO          772    i.fix               functions.o
    0x08007874   0x00000548   Code   RO          151    i.main              main.o
    0x08007dbc   0x0000006e   Code   RO         3415    i.sqrt              m_wm.l(sqrt.o)
    0x08007e2a   0x00000018   Code   RO         3291    x$fpl$basic         fz_wm.l(basic.o)
    0x08007e42   0x00000002   PAD
    0x08007e44   0x00000062   Code   RO         3293    x$fpl$d2f           fz_wm.l(d2f.o)
    0x08007ea6   0x00000002   PAD
    0x08007ea8   0x00000150   Code   RO         3295    x$fpl$dadd          fz_wm.l(daddsub_clz.o)
    0x08007ff8   0x00000010   Code   RO         3502    x$fpl$dcheck1       fz_wm.l(dcheck1.o)
    0x08008008   0x00000018   Code   RO         3440    x$fpl$dcmpinf       fz_wm.l(dcmpi.o)
    0x08008020   0x000002b0   Code   RO         3302    x$fpl$ddiv          fz_wm.l(ddiv.o)
    0x080082d0   0x00000078   Code   RO         3305    x$fpl$deqf          fz_wm.l(deqf.o)
    0x08008348   0x0000005e   Code   RO         3307    x$fpl$dfix          fz_wm.l(dfix.o)
    0x080083a6   0x00000002   PAD
    0x080083a8   0x0000005a   Code   RO         3311    x$fpl$dfixu         fz_wm.l(dfixu.o)
    0x08008402   0x0000002e   Code   RO         3316    x$fpl$dflt          fz_wm.l(dflt_clz.o)
    0x08008430   0x00000026   Code   RO         3315    x$fpl$dfltu         fz_wm.l(dflt_clz.o)
    0x08008456   0x00000002   PAD
    0x08008458   0x00000078   Code   RO         3321    x$fpl$dleqf         fz_wm.l(dleqf.o)
    0x080084d0   0x00000154   Code   RO         3323    x$fpl$dmul          fz_wm.l(dmul.o)
    0x08008624   0x0000009c   Code   RO         3442    x$fpl$dnaninf       fz_wm.l(dnaninf.o)
    0x080086c0   0x0000000c   Code   RO         3444    x$fpl$dretinf       fz_wm.l(dretinf.o)
    0x080086cc   0x0000006c   Code   RO         3325    x$fpl$drleqf        fz_wm.l(drleqf.o)
    0x08008738   0x00000016   Code   RO         3296    x$fpl$drsb          fz_wm.l(daddsub_clz.o)
    0x0800874e   0x00000002   PAD
    0x08008750   0x00000198   Code   RO         3446    x$fpl$dsqrt         fz_wm.l(dsqrt_umaal.o)
    0x080088e8   0x000001d4   Code   RO         3297    x$fpl$dsub          fz_wm.l(daddsub_clz.o)
    0x08008abc   0x00000056   Code   RO         3327    x$fpl$f2d           fz_wm.l(f2d.o)
    0x08008b12   0x0000008c   Code   RO         3448    x$fpl$fnaninf       fz_wm.l(fnaninf.o)
    0x08008b9e   0x0000000a   Code   RO         3575    x$fpl$fpinit        fz_wm.l(fpinit.o)
    0x08008ba8   0x0000000a   Code   RO         3450    x$fpl$fretinf       fz_wm.l(fretinf.o)
    0x08008bb2   0x00000064   Code   RO         3517    x$fpl$retnan        fz_wm.l(retnan.o)
    0x08008c16   0x0000005c   Code   RO         3452    x$fpl$scalbn        fz_wm.l(scalbn.o)
    0x08008c72   0x00000030   Code   RO         3564    x$fpl$trapveneer    fz_wm.l(trapv.o)
    0x08008ca2   0x00000000   Code   RO         3454    x$fpl$usenofp       fz_wm.l(usenofp.o)
    0x08008ca2   0x00000006   PAD
    0x08008ca8   0x00000098   Data   RO         3332    .constdata          m_wm.l(atan.o)
    0x08008d40   0x00000038   Data   RO         3376    .constdata          m_wm.l(log.o)
    0x08008d78   0x00000088   Data   RO         3390    .constdata          m_wm.l(pow.o)
    0x08008e00   0x00000030   Data   RO         3456    .constdata          m_wm.l(cos_i.o)
    0x08008e30   0x00000008   Data   RO         3464    .constdata          m_wm.l(qnan.o)
    0x08008e38   0x000000c8   Data   RO         3467    .constdata          m_wm.l(rred.o)
    0x08008f00   0x00000028   Data   RO         3471    .constdata          m_wm.l(sin_i.o)
    0x08008f28   0x00000060   Data   RO         3477    .constdata          m_wm.l(tan_i.o)
    0x08008f88   0x00000020   Data   RO         3642    Region$$Table       anon$$obj.o


    Execution Region RW_IRAM1 (Base: 0x20000000, Size: 0x0000ebb8, Max: 0x00020000, ABSOLUTE)

    Base Addr    Size         Type   Attr      Idx    E Section Name        Object

    0x20000000   0x00000014   Data   RW            7    .data               system_stm32f4xx.o
    0x20000014   0x00000004   Data   RW          153    .data               main.o
    0x20000018   0x00000003   Data   RW          346    .data               stm32f4xx_it.o
    0x2000001b   0x00000001   PAD
    0x2000001c   0x0000000c   Data   RW          492    .data               encoder.o
    0x20000028   0x00000014   Data   RW          634    .data               usart_dma_config.o
    0x2000003c   0x00000004   PAD
    0x20000040   0x00000040   Data   RW          782    .data               functions.o
    0x20000080   0x0000000c   Data   RW         1308    .data               srf05.o
    0x2000008c   0x00000010   Data   RW         2219    .data               stm32f4xx_rcc.o
    0x2000009c   0x00000004   PAD
    0x200000a0   0x00000068   Zero   RW          152    .bss                main.o
    0x20000108   0x00000020   Zero   RW          491    .bss                encoder.o
    0x20000128   0x00000a88   Zero   RW          633    .bss                usart_dma_config.o
    0x20000bb0   0x0000000d   Zero   RW          773    .bss                functions.o
    0x20000bbd   0x00000003   PAD
    0x20000bc0   0x00000058   Zero   RW          774    .bss                functions.o
    0x20000c18   0x00000058   Zero   RW          775    .bss                functions.o
    0x20000c70   0x0000cc7c   Zero   RW          777    .bss                functions.o
    0x2000d8ec   0x000005dc   Zero   RW          778    .bss                functions.o
    0x2000dec8   0x000005dc   Zero   RW          779    .bss                functions.o
    0x2000e4a4   0x00000004   PAD
    0x2000e4a8   0x00000048   Zero   RW          780    .bss                functions.o
    0x2000e4f0   0x00000015   Zero   RW          781    .bss                functions.o
    0x2000e505   0x00000003   PAD
    0x2000e508   0x00000016   Zero   RW         1307    .bss                srf05.o
    0x2000e51e   0x00000002   PAD
    0x2000e520   0x00000038   Zero   RW         1431    .bss                twowheelrobot.o
    0x2000e558   0x00000060   Zero   RW         3505    .bss                c_w.l(libspace.o)
    0x2000e5b8   0x00000200   Zero   RW         1460    HEAP                startup_stm32f411xe.o
    0x2000e7b8   0x00000400   Zero   RW         1459    STACK               startup_stm32f411xe.o


==============================================================================

Image component sizes


      Code (inc. data)   RO Data    RW Data    ZI Data      Debug   Object Name

       866        104          0         12         32       9891   encoder.o
      9852       1090          0         64      55630      56060   functions.o
      3512        374          0          4        104      43445   main.o
       120         14          0          0          0       1751   misc.o
       266         16          0         12         22       4746   srf05.o
        64         26        408          0       1536        976   startup_stm32f411xe.o
       696        152          0          0          0       4586   stm32f411_rccenable.o
       288         40          0          0          0       5376   stm32f4xx_dma.o
       310         30          0          0          0       4635   stm32f4xx_flash.o
       230          0          0          0          0       4492   stm32f4xx_gpio.o
      3324        494          0          3          0      13159   stm32f4xx_it.o
       220         34          0         16          0       5119   stm32f4xx_rcc.o
       870         44          0          0          0      15551   stm32f4xx_tim.o
       332          8          0          0          0       5747   stm32f4xx_usart.o
       208         36          0         20          0     283953   system_stm32f4xx.o
        60         26          0          0         56       1864   twowheelrobot.o
      1140         78          0         20       2696       5010   usart_dma_config.o

    ----------------------------------------------------------------------
     22400       2566        440        156      60092     466361   Object Totals
         0          0         32          0          0          0   (incl. Generated)
        42          0          0          5         16          0   (incl. Padding)

    ----------------------------------------------------------------------

      Code (inc. data)   RO Data    RW Data    ZI Data      Debug   Library Member Name

         8          0          0          0          0         68   __main.o
        52          8          0          0          0          0   __scatter.o
        26          0          0          0          0          0   __scatter_copy.o
        28          0          0          0          0          0   __scatter_zi.o
        22          0          0          0          0        100   _rserrno.o
        12          0          0          0          0         72   exit.o
         6          0          0          0          0        152   heapauxi.o
         0          0          0          0          0          0   indicate_semi.o
         2          0          0          0          0          0   libinit.o
         6          0          0          0          0          0   libinit2.o
         2          0          0          0          0          0   libshutdown.o
         2          0          0          0          0          0   libshutdown2.o
         8          4          0          0         96         68   libspace.o
         8          4          0          0          0         68   rt_errno_addr_intlibspace.o
         0          0          0          0          0          0   rtentry.o
        12          0          0          0          0          0   rtentry2.o
         6          0          0          0          0          0   rtentry4.o
         2          0          0          0          0          0   rtexit.o
        10          0          0          0          0          0   rtexit2.o
        12          4          0          0          0         68   sys_exit.o
        74          0          0          0          0         80   sys_stackheap_outer.o
         2          0          0          0          0         68   use_no_semi.o
        24          0          0          0          0        164   basic.o
        98          4          0          0          0        140   d2f.o
       826         16          0          0          0        492   daddsub_clz.o
        16          4          0          0          0        116   dcheck1.o
        24          0          0          0          0        116   dcmpi.o
       688        140          0          0          0        256   ddiv.o
       120          4          0          0          0        140   deqf.o
        94          4          0          0          0        140   dfix.o
        90          4          0          0          0        140   dfixu.o
        84          0          0          0          0        232   dflt_clz.o
       120          4          0          0          0        140   dleqf.o
       340         12          0          0          0        152   dmul.o
       156          4          0          0          0        140   dnaninf.o
        12          0          0          0          0        116   dretinf.o
       108          0          0          0          0        128   drleqf.o
       408         56          0          0          0        168   dsqrt_umaal.o
        86          4          0          0          0        132   f2d.o
       140          4          0          0          0        132   fnaninf.o
        10          0          0          0          0        116   fpinit.o
        10          0          0          0          0        116   fretinf.o
       100          0          0          0          0        116   retnan.o
        92          0          0          0          0        116   scalbn.o
        48          0          0          0          0        116   trapv.o
         0          0          0          0          0          0   usenofp.o
       752        104        152          0          0        344   atan.o
       496         70          0          0          0        156   atan2.o
       216         16          0          0          0        152   cos.o
       368         46         48          0          0        200   cos_i.o
        32          8          0          0          0        124   dunder.o
        44          0          0          0          0        248   fabs.o
        48          0          0          0          0        124   fpclassify.o
       996        114         56          0          0        232   log.o
       248          0          0          0          0        152   poly.o
      3128        304        136          0          0        216   pow.o
         0          0          8          0          0          0   qnan.o
      1080        142        200          0          0        188   rred.o
       216         16          0          0          0        152   sin.o
       304         24         40          0          0        208   sin_i.o
       232          0          0          0          0        296   sqrt.o
       160         18          0          0          0        152   tan.o
       848         84         96          0          0        196   tan_i.o

    ----------------------------------------------------------------------
     13200       1230        736          0         96       7508   Library Totals
        38          4          0          0          0          0   (incl. Padding)

    ----------------------------------------------------------------------

      Code (inc. data)   RO Data    RW Data    ZI Data      Debug   Library Name

       300         20          0          0         96        744   c_w.l
      3694        260          0          0          0       3624   fz_wm.l
      9168        946        736          0          0       3140   m_wm.l

    ----------------------------------------------------------------------
     13200       1230        736          0         96       7508   Library Totals

    ----------------------------------------------------------------------

==============================================================================


      Code (inc. data)   RO Data    RW Data    ZI Data      Debug   

     35600       3796       1176        156      60188     451409   Grand Totals
     35600       3796       1176        156      60188     451409   ELF Image Totals
     35600       3796       1176        156          0          0   ROM Totals

==============================================================================

    Total RO  Size (Code + RO Data)                36776 (  35.91kB)
    Total RW  Size (RW Data + ZI Data)             60344 (  58.93kB)
    Total ROM Size (Code + RO Data + RW Data)      36932 (  36.07kB)

==============================================================================

